	.file	"matrix_operations.c"
	.option nopic
	.attribute arch, "rv64i2p1_m2p0_a2p1_f2p2_d2p2_c2p0_zicsr2p0_zifencei2p0"
	.attribute unaligned_access, 0
	.attribute stack_align, 16
	.text
	.align	1
	.globl	memory_indirect
	.type	memory_indirect, @function
memory_indirect:
.LFB6:
	.cfi_startproc
	addi	sp,sp,-48
	.cfi_def_cfa_offset 48
	sd	ra,40(sp)
	sd	s0,32(sp)
	.cfi_offset 1, -8
	.cfi_offset 8, -16
	addi	s0,sp,48
	.cfi_def_cfa 8, 0
	sd	a0,-40(s0)
	sw	zero,-20(s0)
	j	.L2
.L3:
	lw	a5,-20(s0)
	slli	a5,a5,2
	ld	a4,-40(s0)
	add	a5,a4,a5
	lw	a4,0(a5)
	lw	a5,-20(s0)
	slli	a5,a5,2
	ld	a3,-40(s0)
	add	a5,a3,a5
	addiw	a4,a4,10
	sext.w	a4,a4
	sw	a4,0(a5)
	lw	a5,-20(s0)
	addiw	a5,a5,1
	sw	a5,-20(s0)
.L2:
	lw	a5,-20(s0)
	sext.w	a4,a5
	li	a5,2
	ble	a4,a5,.L3
	nop
	nop
	ld	ra,40(sp)
	.cfi_restore 1
	ld	s0,32(sp)
	.cfi_restore 8
	.cfi_def_cfa 2, 48
	addi	sp,sp,48
	.cfi_def_cfa_offset 0
	jr	ra
	.cfi_endproc
.LFE6:
	.size	memory_indirect, .-memory_indirect
	.align	1
	.globl	scaled_addressing
	.type	scaled_addressing, @function
scaled_addressing:
.LFB7:
	.cfi_startproc
	addi	sp,sp,-48
	.cfi_def_cfa_offset 48
	sd	ra,40(sp)
	sd	s0,32(sp)
	.cfi_offset 1, -8
	.cfi_offset 8, -16
	addi	s0,sp,48
	.cfi_def_cfa 8, 0
	sd	a0,-40(s0)
	sw	zero,-20(s0)
	j	.L5
.L8:
	sw	zero,-24(s0)
	j	.L6
.L7:
	lw	a4,-20(s0)
	mv	a5,a4
	slli	a5,a5,1
	add	a5,a5,a4
	slli	a5,a5,2
	mv	a4,a5
	ld	a5,-40(s0)
	add	a4,a5,a4
	lw	a5,-24(s0)
	slli	a5,a5,2
	add	a5,a4,a5
	lw	a2,0(a5)
	lw	a4,-20(s0)
	mv	a5,a4
	slli	a5,a5,1
	add	a5,a5,a4
	slli	a5,a5,2
	mv	a4,a5
	ld	a5,-40(s0)
	add	a3,a5,a4
	slliw	a5,a2,1
	sext.w	a4,a5
	lw	a5,-24(s0)
	slli	a5,a5,2
	add	a5,a3,a5
	sw	a4,0(a5)
	lw	a5,-24(s0)
	addiw	a5,a5,1
	sw	a5,-24(s0)
.L6:
	lw	a5,-24(s0)
	sext.w	a4,a5
	li	a5,2
	ble	a4,a5,.L7
	lw	a5,-20(s0)
	addiw	a5,a5,1
	sw	a5,-20(s0)
.L5:
	lw	a5,-20(s0)
	sext.w	a4,a5
	li	a5,2
	ble	a4,a5,.L8
	nop
	nop
	ld	ra,40(sp)
	.cfi_restore 1
	ld	s0,32(sp)
	.cfi_restore 8
	.cfi_def_cfa 2, 48
	addi	sp,sp,48
	.cfi_def_cfa_offset 0
	jr	ra
	.cfi_endproc
.LFE7:
	.size	scaled_addressing, .-scaled_addressing
	.align	1
	.globl	register_indirect
	.type	register_indirect, @function
register_indirect:
.LFB8:
	.cfi_startproc
	addi	sp,sp,-48
	.cfi_def_cfa_offset 48
	sd	ra,40(sp)
	sd	s0,32(sp)
	.cfi_offset 1, -8
	.cfi_offset 8, -16
	addi	s0,sp,48
	.cfi_def_cfa 8, 0
	sd	a0,-40(s0)
	sw	zero,-20(s0)
	j	.L10
.L11:
	lw	a5,-20(s0)
	slli	a5,a5,2
	ld	a4,-40(s0)
	add	a5,a4,a5
	lw	a4,-20(s0)
	slliw	a4,a4,1
	sext.w	a4,a4
	sw	a4,0(a5)
	lw	a5,-20(s0)
	addiw	a5,a5,1
	sw	a5,-20(s0)
.L10:
	lw	a5,-20(s0)
	sext.w	a4,a5
	li	a5,2
	ble	a4,a5,.L11
	nop
	nop
	ld	ra,40(sp)
	.cfi_restore 1
	ld	s0,32(sp)
	.cfi_restore 8
	.cfi_def_cfa 2, 48
	addi	sp,sp,48
	.cfi_def_cfa_offset 0
	jr	ra
	.cfi_endproc
.LFE8:
	.size	register_indirect, .-register_indirect
	.align	1
	.globl	immediate_addressing
	.type	immediate_addressing, @function
immediate_addressing:
.LFB9:
	.cfi_startproc
	addi	sp,sp,-32
	.cfi_def_cfa_offset 32
	sd	ra,24(sp)
	sd	s0,16(sp)
	.cfi_offset 1, -8
	.cfi_offset 8, -16
	addi	s0,sp,32
	.cfi_def_cfa 8, 0
	mv	a5,a0
	mv	a4,a1
	sw	a5,-20(s0)
	mv	a5,a4
	sw	a5,-24(s0)
	lw	a5,-24(s0)
	mv	a4,a5
	mv	a5,a4
	slliw	a5,a5,2
	addw	a5,a5,a4
	slliw	a5,a5,1
	sext.w	a5,a5
	lw	a4,-20(s0)
	addw	a5,a4,a5
	sext.w	a5,a5
	mv	a0,a5
	ld	ra,24(sp)
	.cfi_restore 1
	ld	s0,16(sp)
	.cfi_restore 8
	.cfi_def_cfa 2, 32
	addi	sp,sp,32
	.cfi_def_cfa_offset 0
	jr	ra
	.cfi_endproc
.LFE9:
	.size	immediate_addressing, .-immediate_addressing
	.align	1
	.globl	displacement_addressing
	.type	displacement_addressing, @function
displacement_addressing:
.LFB10:
	.cfi_startproc
	addi	sp,sp,-32
	.cfi_def_cfa_offset 32
	sd	ra,24(sp)
	sd	s0,16(sp)
	.cfi_offset 1, -8
	.cfi_offset 8, -16
	addi	s0,sp,32
	.cfi_def_cfa 8, 0
	sd	a0,-24(s0)
	ld	a5,-24(s0)
	lw	a5,0(a5)
	addiw	a5,a5,1
	sext.w	a4,a5
	ld	a5,-24(s0)
	sw	a4,0(a5)
	ld	a5,-24(s0)
	lw	a5,4(a5)
	addiw	a5,a5,2
	sext.w	a4,a5
	ld	a5,-24(s0)
	sw	a4,4(a5)
	nop
	ld	ra,24(sp)
	.cfi_restore 1
	ld	s0,16(sp)
	.cfi_restore 8
	.cfi_def_cfa 2, 32
	addi	sp,sp,32
	.cfi_def_cfa_offset 0
	jr	ra
	.cfi_endproc
.LFE10:
	.size	displacement_addressing, .-displacement_addressing
	.section	.rodata
	.align	3
.LC1:
	.string	"Immediate addressing result: %d\n"
	.align	3
.LC2:
	.string	"Displacement addressing Point: (%d, %d)\n"
	.align	3
.LC0:
	.word	1
	.word	2
	.word	3
	.word	4
	.word	5
	.word	6
	.word	7
	.word	8
	.word	9
	.text
	.align	1
	.globl	main
	.type	main, @function
main:
.LFB11:
	.cfi_startproc
	addi	sp,sp,-80
	.cfi_def_cfa_offset 80
	sd	ra,72(sp)
	sd	s0,64(sp)
	.cfi_offset 1, -8
	.cfi_offset 8, -16
	addi	s0,sp,80
	.cfi_def_cfa 8, 0
	li	a5,1
	sw	a5,-32(s0)
	li	a5,2
	sw	a5,-28(s0)
	li	a5,3
	sw	a5,-24(s0)
	lui	a5,%hi(.LC0)
	addi	a5,a5,%lo(.LC0)
	ld	a1,0(a5)
	ld	a2,8(a5)
	ld	a3,16(a5)
	ld	a4,24(a5)
	sd	a1,-72(s0)
	sd	a2,-64(s0)
	sd	a3,-56(s0)
	sd	a4,-48(s0)
	lw	a5,32(a5)
	sw	a5,-40(s0)
	li	a5,10
	sw	a5,-80(s0)
	li	a5,20
	sw	a5,-76(s0)
	addi	a5,s0,-32
	mv	a0,a5
	call	memory_indirect
	addi	a5,s0,-72
	mv	a0,a5
	call	scaled_addressing
	addi	a5,s0,-32
	mv	a0,a5
	call	register_indirect
	li	a1,3
	li	a0,5
	call	immediate_addressing
	mv	a5,a0
	sw	a5,-20(s0)
	addi	a5,s0,-80
	mv	a0,a5
	call	displacement_addressing
	lw	a5,-20(s0)
	mv	a1,a5
	lui	a5,%hi(.LC1)
	addi	a0,a5,%lo(.LC1)
	call	printf
	lw	a5,-80(s0)
	lw	a4,-76(s0)
	mv	a2,a4
	mv	a1,a5
	lui	a5,%hi(.LC2)
	addi	a0,a5,%lo(.LC2)
	call	printf
	li	a5,0
	mv	a0,a5
	ld	ra,72(sp)
	.cfi_restore 1
	ld	s0,64(sp)
	.cfi_restore 8
	.cfi_def_cfa 2, 80
	addi	sp,sp,80
	.cfi_def_cfa_offset 0
	jr	ra
	.cfi_endproc
.LFE11:
	.size	main, .-main
	.ident	"GCC: (g04696df09) 14.2.0"
	.section	.note.GNU-stack,"",@progbits
