
matrix_mult.elf:     file format elf64-littleriscv


Disassembly of section .text:

0000000000010120 <exit>:
   10120:	1141                	addi	sp,sp,-16
   10122:	4581                	li	a1,0
   10124:	e022                	sd	s0,0(sp)
   10126:	e406                	sd	ra,8(sp)
   10128:	842a                	mv	s0,a0
   1012a:	2d9000ef          	jal	10c02 <__call_exitprocs>
   1012e:	2381b783          	ld	a5,568(gp) # 1bcc8 <__stdio_exit_handler>
   10132:	c391                	beqz	a5,10136 <exit+0x16>
   10134:	9782                	jalr	a5
   10136:	8522                	mv	a0,s0
   10138:	304080ef          	jal	1843c <_exit>

000000000001013c <register_fini>:
   1013c:	00000793          	li	a5,0
   10140:	c791                	beqz	a5,1014c <register_fini+0x10>
   10142:	6551                	lui	a0,0x14
   10144:	25a50513          	addi	a0,a0,602 # 1425a <__libc_fini_array>
   10148:	3890006f          	j	10cd0 <atexit>
   1014c:	8082                	ret

000000000001014e <_start>:
   1014e:	0000c197          	auipc	gp,0xc
   10152:	94218193          	addi	gp,gp,-1726 # 1ba90 <__global_pointer$>
   10156:	23818513          	addi	a0,gp,568 # 1bcc8 <__stdio_exit_handler>
   1015a:	0000c617          	auipc	a2,0xc
   1015e:	13660613          	addi	a2,a2,310 # 1c290 <__BSS_END__>
   10162:	8e09                	sub	a2,a2,a0
   10164:	4581                	li	a1,0
   10166:	159000ef          	jal	10abe <memset>
   1016a:	00001517          	auipc	a0,0x1
   1016e:	b6650513          	addi	a0,a0,-1178 # 10cd0 <atexit>
   10172:	c519                	beqz	a0,10180 <_start+0x32>
   10174:	00004517          	auipc	a0,0x4
   10178:	0e650513          	addi	a0,a0,230 # 1425a <__libc_fini_array>
   1017c:	355000ef          	jal	10cd0 <atexit>
   10180:	0d5000ef          	jal	10a54 <__libc_init_array>
   10184:	4502                	lw	a0,0(sp)
   10186:	002c                	addi	a1,sp,8
   10188:	4601                	li	a2,0
   1018a:	1f6000ef          	jal	10380 <main>
   1018e:	bf49                	j	10120 <exit>

0000000000010190 <__do_global_dtors_aux>:
   10190:	1141                	addi	sp,sp,-16
   10192:	e022                	sd	s0,0(sp)
   10194:	2781c783          	lbu	a5,632(gp) # 1bd08 <completed.1>
   10198:	e406                	sd	ra,8(sp)
   1019a:	ef91                	bnez	a5,101b6 <__do_global_dtors_aux+0x26>
   1019c:	00000793          	li	a5,0
   101a0:	cb81                	beqz	a5,101b0 <__do_global_dtors_aux+0x20>
   101a2:	6569                	lui	a0,0x1a
   101a4:	0e850513          	addi	a0,a0,232 # 1a0e8 <__EH_FRAME_BEGIN__>
   101a8:	00000097          	auipc	ra,0x0
   101ac:	000000e7          	jalr	zero # 0 <exit-0x10120>
   101b0:	4785                	li	a5,1
   101b2:	26f18c23          	sb	a5,632(gp) # 1bd08 <completed.1>
   101b6:	60a2                	ld	ra,8(sp)
   101b8:	6402                	ld	s0,0(sp)
   101ba:	0141                	addi	sp,sp,16
   101bc:	8082                	ret

00000000000101be <frame_dummy>:
   101be:	00000793          	li	a5,0
   101c2:	cb91                	beqz	a5,101d6 <frame_dummy+0x18>
   101c4:	6569                	lui	a0,0x1a
   101c6:	28018593          	addi	a1,gp,640 # 1bd10 <object.0>
   101ca:	0e850513          	addi	a0,a0,232 # 1a0e8 <__EH_FRAME_BEGIN__>
   101ce:	00000317          	auipc	t1,0x0
   101d2:	00000067          	jr	zero # 0 <exit-0x10120>
   101d6:	8082                	ret

00000000000101d8 <multiplyMatrices>:
   101d8:	7139                	addi	sp,sp,-64
   101da:	fc06                	sd	ra,56(sp)
   101dc:	f822                	sd	s0,48(sp)
   101de:	0080                	addi	s0,sp,64
   101e0:	fca43c23          	sd	a0,-40(s0)
   101e4:	fcb43823          	sd	a1,-48(s0)
   101e8:	fcc43423          	sd	a2,-56(s0)
   101ec:	fe042623          	sw	zero,-20(s0)
   101f0:	a8cd                	j	102e2 <multiplyMatrices+0x10a>
   101f2:	fe042423          	sw	zero,-24(s0)
   101f6:	a8d1                	j	102ca <multiplyMatrices+0xf2>
   101f8:	fec42703          	lw	a4,-20(s0)
   101fc:	87ba                	mv	a5,a4
   101fe:	0786                	slli	a5,a5,0x1
   10200:	97ba                	add	a5,a5,a4
   10202:	078a                	slli	a5,a5,0x2
   10204:	873e                	mv	a4,a5
   10206:	fc843783          	ld	a5,-56(s0)
   1020a:	973e                	add	a4,a4,a5
   1020c:	fe842783          	lw	a5,-24(s0)
   10210:	078a                	slli	a5,a5,0x2
   10212:	97ba                	add	a5,a5,a4
   10214:	0007a023          	sw	zero,0(a5)
   10218:	fe042223          	sw	zero,-28(s0)
   1021c:	a859                	j	102b2 <multiplyMatrices+0xda>
   1021e:	fec42703          	lw	a4,-20(s0)
   10222:	87ba                	mv	a5,a4
   10224:	0786                	slli	a5,a5,0x1
   10226:	97ba                	add	a5,a5,a4
   10228:	078a                	slli	a5,a5,0x2
   1022a:	873e                	mv	a4,a5
   1022c:	fc843783          	ld	a5,-56(s0)
   10230:	973e                	add	a4,a4,a5
   10232:	fe842783          	lw	a5,-24(s0)
   10236:	078a                	slli	a5,a5,0x2
   10238:	97ba                	add	a5,a5,a4
   1023a:	438c                	lw	a1,0(a5)
   1023c:	fec42703          	lw	a4,-20(s0)
   10240:	87ba                	mv	a5,a4
   10242:	0786                	slli	a5,a5,0x1
   10244:	97ba                	add	a5,a5,a4
   10246:	078a                	slli	a5,a5,0x2
   10248:	873e                	mv	a4,a5
   1024a:	fd843783          	ld	a5,-40(s0)
   1024e:	973e                	add	a4,a4,a5
   10250:	fe442783          	lw	a5,-28(s0)
   10254:	078a                	slli	a5,a5,0x2
   10256:	97ba                	add	a5,a5,a4
   10258:	4394                	lw	a3,0(a5)
   1025a:	fe442703          	lw	a4,-28(s0)
   1025e:	87ba                	mv	a5,a4
   10260:	0786                	slli	a5,a5,0x1
   10262:	97ba                	add	a5,a5,a4
   10264:	078a                	slli	a5,a5,0x2
   10266:	873e                	mv	a4,a5
   10268:	fd043783          	ld	a5,-48(s0)
   1026c:	973e                	add	a4,a4,a5
   1026e:	fe842783          	lw	a5,-24(s0)
   10272:	078a                	slli	a5,a5,0x2
   10274:	97ba                	add	a5,a5,a4
   10276:	439c                	lw	a5,0(a5)
   10278:	02f687bb          	mulw	a5,a3,a5
   1027c:	0007861b          	sext.w	a2,a5
   10280:	fec42703          	lw	a4,-20(s0)
   10284:	87ba                	mv	a5,a4
   10286:	0786                	slli	a5,a5,0x1
   10288:	97ba                	add	a5,a5,a4
   1028a:	078a                	slli	a5,a5,0x2
   1028c:	873e                	mv	a4,a5
   1028e:	fc843783          	ld	a5,-56(s0)
   10292:	00e786b3          	add	a3,a5,a4
   10296:	00c587bb          	addw	a5,a1,a2
   1029a:	0007871b          	sext.w	a4,a5
   1029e:	fe842783          	lw	a5,-24(s0)
   102a2:	078a                	slli	a5,a5,0x2
   102a4:	97b6                	add	a5,a5,a3
   102a6:	c398                	sw	a4,0(a5)
   102a8:	fe442783          	lw	a5,-28(s0)
   102ac:	2785                	addiw	a5,a5,1
   102ae:	fef42223          	sw	a5,-28(s0)
   102b2:	fe442783          	lw	a5,-28(s0)
   102b6:	0007871b          	sext.w	a4,a5
   102ba:	4789                	li	a5,2
   102bc:	f6e7d1e3          	bge	a5,a4,1021e <multiplyMatrices+0x46>
   102c0:	fe842783          	lw	a5,-24(s0)
   102c4:	2785                	addiw	a5,a5,1
   102c6:	fef42423          	sw	a5,-24(s0)
   102ca:	fe842783          	lw	a5,-24(s0)
   102ce:	0007871b          	sext.w	a4,a5
   102d2:	4789                	li	a5,2
   102d4:	f2e7d2e3          	bge	a5,a4,101f8 <multiplyMatrices+0x20>
   102d8:	fec42783          	lw	a5,-20(s0)
   102dc:	2785                	addiw	a5,a5,1
   102de:	fef42623          	sw	a5,-20(s0)
   102e2:	fec42783          	lw	a5,-20(s0)
   102e6:	0007871b          	sext.w	a4,a5
   102ea:	4789                	li	a5,2
   102ec:	f0e7d3e3          	bge	a5,a4,101f2 <multiplyMatrices+0x1a>
   102f0:	0001                	nop
   102f2:	0001                	nop
   102f4:	70e2                	ld	ra,56(sp)
   102f6:	7442                	ld	s0,48(sp)
   102f8:	6121                	addi	sp,sp,64
   102fa:	8082                	ret

00000000000102fc <printMatrix>:
   102fc:	7179                	addi	sp,sp,-48
   102fe:	f406                	sd	ra,40(sp)
   10300:	f022                	sd	s0,32(sp)
   10302:	1800                	addi	s0,sp,48
   10304:	fca43c23          	sd	a0,-40(s0)
   10308:	fe042623          	sw	zero,-20(s0)
   1030c:	a8a9                	j	10366 <printMatrix+0x6a>
   1030e:	fe042423          	sw	zero,-24(s0)
   10312:	a81d                	j	10348 <printMatrix+0x4c>
   10314:	fec42703          	lw	a4,-20(s0)
   10318:	87ba                	mv	a5,a4
   1031a:	0786                	slli	a5,a5,0x1
   1031c:	97ba                	add	a5,a5,a4
   1031e:	078a                	slli	a5,a5,0x2
   10320:	873e                	mv	a4,a5
   10322:	fd843783          	ld	a5,-40(s0)
   10326:	973e                	add	a4,a4,a5
   10328:	fe842783          	lw	a5,-24(s0)
   1032c:	078a                	slli	a5,a5,0x2
   1032e:	97ba                	add	a5,a5,a4
   10330:	439c                	lw	a5,0(a5)
   10332:	85be                	mv	a1,a5
   10334:	67e9                	lui	a5,0x1a
   10336:	86078513          	addi	a0,a5,-1952 # 19860 <__clzdi2+0x34>
   1033a:	40a000ef          	jal	10744 <printf>
   1033e:	fe842783          	lw	a5,-24(s0)
   10342:	2785                	addiw	a5,a5,1
   10344:	fef42423          	sw	a5,-24(s0)
   10348:	fe842783          	lw	a5,-24(s0)
   1034c:	0007871b          	sext.w	a4,a5
   10350:	4789                	li	a5,2
   10352:	fce7d1e3          	bge	a5,a4,10314 <printMatrix+0x18>
   10356:	4529                	li	a0,10
   10358:	41e000ef          	jal	10776 <putchar>
   1035c:	fec42783          	lw	a5,-20(s0)
   10360:	2785                	addiw	a5,a5,1
   10362:	fef42623          	sw	a5,-20(s0)
   10366:	fec42783          	lw	a5,-20(s0)
   1036a:	0007871b          	sext.w	a4,a5
   1036e:	4789                	li	a5,2
   10370:	f8e7dfe3          	bge	a5,a4,1030e <printMatrix+0x12>
   10374:	0001                	nop
   10376:	0001                	nop
   10378:	70a2                	ld	ra,40(sp)
   1037a:	7402                	ld	s0,32(sp)
   1037c:	6145                	addi	sp,sp,48
   1037e:	8082                	ret

0000000000010380 <main>:
   10380:	7175                	addi	sp,sp,-144
   10382:	e506                	sd	ra,136(sp)
   10384:	e122                	sd	s0,128(sp)
   10386:	0900                	addi	s0,sp,144
   10388:	67e9                	lui	a5,0x1a
   1038a:	8a078793          	addi	a5,a5,-1888 # 198a0 <__clzdi2+0x74>
   1038e:	638c                	ld	a1,0(a5)
   10390:	6790                	ld	a2,8(a5)
   10392:	6b94                	ld	a3,16(a5)
   10394:	6f98                	ld	a4,24(a5)
   10396:	fcb43423          	sd	a1,-56(s0)
   1039a:	fcc43823          	sd	a2,-48(s0)
   1039e:	fcd43c23          	sd	a3,-40(s0)
   103a2:	fee43023          	sd	a4,-32(s0)
   103a6:	539c                	lw	a5,32(a5)
   103a8:	fef42423          	sw	a5,-24(s0)
   103ac:	67e9                	lui	a5,0x1a
   103ae:	8c878793          	addi	a5,a5,-1848 # 198c8 <__clzdi2+0x9c>
   103b2:	638c                	ld	a1,0(a5)
   103b4:	6790                	ld	a2,8(a5)
   103b6:	6b94                	ld	a3,16(a5)
   103b8:	6f98                	ld	a4,24(a5)
   103ba:	fab43023          	sd	a1,-96(s0)
   103be:	fac43423          	sd	a2,-88(s0)
   103c2:	fad43823          	sd	a3,-80(s0)
   103c6:	fae43c23          	sd	a4,-72(s0)
   103ca:	539c                	lw	a5,32(a5)
   103cc:	fcf42023          	sw	a5,-64(s0)
   103d0:	67e9                	lui	a5,0x1a
   103d2:	86878513          	addi	a0,a5,-1944 # 19868 <__clzdi2+0x3c>
   103d6:	434000ef          	jal	1080a <puts>
   103da:	fc840793          	addi	a5,s0,-56
   103de:	853e                	mv	a0,a5
   103e0:	f1dff0ef          	jal	102fc <printMatrix>
   103e4:	67e9                	lui	a5,0x1a
   103e6:	87878513          	addi	a0,a5,-1928 # 19878 <__clzdi2+0x4c>
   103ea:	420000ef          	jal	1080a <puts>
   103ee:	fa040793          	addi	a5,s0,-96
   103f2:	853e                	mv	a0,a5
   103f4:	f09ff0ef          	jal	102fc <printMatrix>
   103f8:	f7840693          	addi	a3,s0,-136
   103fc:	fa040713          	addi	a4,s0,-96
   10400:	fc840793          	addi	a5,s0,-56
   10404:	8636                	mv	a2,a3
   10406:	85ba                	mv	a1,a4
   10408:	853e                	mv	a0,a5
   1040a:	dcfff0ef          	jal	101d8 <multiplyMatrices>
   1040e:	67e9                	lui	a5,0x1a
   10410:	88878513          	addi	a0,a5,-1912 # 19888 <__clzdi2+0x5c>
   10414:	3f6000ef          	jal	1080a <puts>
   10418:	f7840793          	addi	a5,s0,-136
   1041c:	853e                	mv	a0,a5
   1041e:	edfff0ef          	jal	102fc <printMatrix>
   10422:	4781                	li	a5,0
   10424:	853e                	mv	a0,a5
   10426:	60aa                	ld	ra,136(sp)
   10428:	640a                	ld	s0,128(sp)
   1042a:	6149                	addi	sp,sp,144
   1042c:	8082                	ret

000000000001042e <__fp_lock>:
   1042e:	4501                	li	a0,0
   10430:	8082                	ret

0000000000010432 <stdio_exit_handler>:
   10432:	666d                	lui	a2,0x1b
   10434:	65cd                	lui	a1,0x13
   10436:	656d                	lui	a0,0x1b
   10438:	10860613          	addi	a2,a2,264 # 1b108 <__sglue>
   1043c:	7d458593          	addi	a1,a1,2004 # 137d4 <_fclose_r>
   10440:	12050513          	addi	a0,a0,288 # 1b120 <_impure_data>
   10444:	ac99                	j	1069a <_fwalk_sglue>

0000000000010446 <cleanup_stdio>:
   10446:	650c                	ld	a1,8(a0)
   10448:	1141                	addi	sp,sp,-16
   1044a:	e022                	sd	s0,0(sp)
   1044c:	e406                	sd	ra,8(sp)
   1044e:	2b018793          	addi	a5,gp,688 # 1bd40 <__sf>
   10452:	842a                	mv	s0,a0
   10454:	00f58463          	beq	a1,a5,1045c <cleanup_stdio+0x16>
   10458:	37c030ef          	jal	137d4 <_fclose_r>
   1045c:	680c                	ld	a1,16(s0)
   1045e:	36018793          	addi	a5,gp,864 # 1bdf0 <__sf+0xb0>
   10462:	00f58563          	beq	a1,a5,1046c <cleanup_stdio+0x26>
   10466:	8522                	mv	a0,s0
   10468:	36c030ef          	jal	137d4 <_fclose_r>
   1046c:	6c0c                	ld	a1,24(s0)
   1046e:	41018793          	addi	a5,gp,1040 # 1bea0 <__sf+0x160>
   10472:	00f58863          	beq	a1,a5,10482 <cleanup_stdio+0x3c>
   10476:	8522                	mv	a0,s0
   10478:	6402                	ld	s0,0(sp)
   1047a:	60a2                	ld	ra,8(sp)
   1047c:	0141                	addi	sp,sp,16
   1047e:	3560306f          	j	137d4 <_fclose_r>
   10482:	60a2                	ld	ra,8(sp)
   10484:	6402                	ld	s0,0(sp)
   10486:	0141                	addi	sp,sp,16
   10488:	8082                	ret

000000000001048a <__fp_unlock>:
   1048a:	4501                	li	a0,0
   1048c:	8082                	ret

000000000001048e <global_stdio_init.part.0>:
   1048e:	7179                	addi	sp,sp,-48
   10490:	f022                	sd	s0,32(sp)
   10492:	67c1                	lui	a5,0x10
   10494:	2b018413          	addi	s0,gp,688 # 1bd40 <__sf>
   10498:	f406                	sd	ra,40(sp)
   1049a:	ec26                	sd	s1,24(sp)
   1049c:	e84a                	sd	s2,16(sp)
   1049e:	e44e                	sd	s3,8(sp)
   104a0:	e052                	sd	s4,0(sp)
   104a2:	4711                	li	a4,4
   104a4:	43278793          	addi	a5,a5,1074 # 10432 <stdio_exit_handler>
   104a8:	4621                	li	a2,8
   104aa:	4581                	li	a1,0
   104ac:	35418513          	addi	a0,gp,852 # 1bde4 <__sf+0xa4>
   104b0:	22f1bc23          	sd	a5,568(gp) # 1bcc8 <__stdio_exit_handler>
   104b4:	c818                	sw	a4,16(s0)
   104b6:	00043023          	sd	zero,0(s0)
   104ba:	00043423          	sd	zero,8(s0)
   104be:	0a042623          	sw	zero,172(s0)
   104c2:	00043c23          	sd	zero,24(s0)
   104c6:	02042023          	sw	zero,32(s0)
   104ca:	02042423          	sw	zero,40(s0)
   104ce:	5f0000ef          	jal	10abe <memset>
   104d2:	67c1                	lui	a5,0x10
   104d4:	6a45                	lui	s4,0x11
   104d6:	69c5                	lui	s3,0x11
   104d8:	6945                	lui	s2,0x11
   104da:	64c5                	lui	s1,0x11
   104dc:	812a0a13          	addi	s4,s4,-2030 # 10812 <__sread>
   104e0:	84e98993          	addi	s3,s3,-1970 # 1084e <__swrite>
   104e4:	8a090913          	addi	s2,s2,-1888 # 108a0 <__sseek>
   104e8:	8de48493          	addi	s1,s1,-1826 # 108de <__sclose>
   104ec:	07a5                	addi	a5,a5,9 # 10009 <exit-0x117>
   104ee:	4621                	li	a2,8
   104f0:	4581                	li	a1,0
   104f2:	40418513          	addi	a0,gp,1028 # 1be94 <__sf+0x154>
   104f6:	0cf42023          	sw	a5,192(s0)
   104fa:	03443c23          	sd	s4,56(s0)
   104fe:	05343023          	sd	s3,64(s0)
   10502:	05243423          	sd	s2,72(s0)
   10506:	e824                	sd	s1,80(s0)
   10508:	f800                	sd	s0,48(s0)
   1050a:	0a043823          	sd	zero,176(s0)
   1050e:	0a043c23          	sd	zero,184(s0)
   10512:	14042e23          	sw	zero,348(s0)
   10516:	0c043423          	sd	zero,200(s0)
   1051a:	0c042823          	sw	zero,208(s0)
   1051e:	0c042c23          	sw	zero,216(s0)
   10522:	59c000ef          	jal	10abe <memset>
   10526:	000207b7          	lui	a5,0x20
   1052a:	07c9                	addi	a5,a5,18 # 20012 <__BSS_END__+0x3d82>
   1052c:	36018713          	addi	a4,gp,864 # 1bdf0 <__sf+0xb0>
   10530:	4b418513          	addi	a0,gp,1204 # 1bf44 <__sf+0x204>
   10534:	4621                	li	a2,8
   10536:	4581                	li	a1,0
   10538:	0f443423          	sd	s4,232(s0)
   1053c:	0f343823          	sd	s3,240(s0)
   10540:	0f243c23          	sd	s2,248(s0)
   10544:	10943023          	sd	s1,256(s0)
   10548:	16f42823          	sw	a5,368(s0)
   1054c:	16043023          	sd	zero,352(s0)
   10550:	16043423          	sd	zero,360(s0)
   10554:	20042623          	sw	zero,524(s0)
   10558:	16043c23          	sd	zero,376(s0)
   1055c:	18042023          	sw	zero,384(s0)
   10560:	18042423          	sw	zero,392(s0)
   10564:	f078                	sd	a4,224(s0)
   10566:	558000ef          	jal	10abe <memset>
   1056a:	41018793          	addi	a5,gp,1040 # 1bea0 <__sf+0x160>
   1056e:	19443c23          	sd	s4,408(s0)
   10572:	1b343023          	sd	s3,416(s0)
   10576:	1b243423          	sd	s2,424(s0)
   1057a:	1a943823          	sd	s1,432(s0)
   1057e:	70a2                	ld	ra,40(sp)
   10580:	18f43823          	sd	a5,400(s0)
   10584:	7402                	ld	s0,32(sp)
   10586:	64e2                	ld	s1,24(sp)
   10588:	6942                	ld	s2,16(sp)
   1058a:	69a2                	ld	s3,8(sp)
   1058c:	6a02                	ld	s4,0(sp)
   1058e:	6145                	addi	sp,sp,48
   10590:	8082                	ret

0000000000010592 <__sfp>:
   10592:	2381b783          	ld	a5,568(gp) # 1bcc8 <__stdio_exit_handler>
   10596:	7179                	addi	sp,sp,-48
   10598:	e84a                	sd	s2,16(sp)
   1059a:	f406                	sd	ra,40(sp)
   1059c:	f022                	sd	s0,32(sp)
   1059e:	ec26                	sd	s1,24(sp)
   105a0:	e44e                	sd	s3,8(sp)
   105a2:	892a                	mv	s2,a0
   105a4:	c7cd                	beqz	a5,1064e <__sfp+0xbc>
   105a6:	64ed                	lui	s1,0x1b
   105a8:	10848493          	addi	s1,s1,264 # 1b108 <__sglue>
   105ac:	0b000993          	li	s3,176
   105b0:	4498                	lw	a4,8(s1)
   105b2:	6880                	ld	s0,16(s1)
   105b4:	06e05463          	blez	a4,1061c <__sfp+0x8a>
   105b8:	1702                	slli	a4,a4,0x20
   105ba:	9301                	srli	a4,a4,0x20
   105bc:	03370733          	mul	a4,a4,s3
   105c0:	9722                	add	a4,a4,s0
   105c2:	a029                	j	105cc <__sfp+0x3a>
   105c4:	0b040413          	addi	s0,s0,176
   105c8:	04e40a63          	beq	s0,a4,1061c <__sfp+0x8a>
   105cc:	01041783          	lh	a5,16(s0)
   105d0:	fbf5                	bnez	a5,105c4 <__sfp+0x32>
   105d2:	77c1                	lui	a5,0xffff0
   105d4:	0785                	addi	a5,a5,1 # ffffffffffff0001 <__BSS_END__+0xfffffffffffd3d71>
   105d6:	0a042623          	sw	zero,172(s0)
   105da:	00043023          	sd	zero,0(s0)
   105de:	00043423          	sd	zero,8(s0)
   105e2:	00043c23          	sd	zero,24(s0)
   105e6:	02042023          	sw	zero,32(s0)
   105ea:	02042423          	sw	zero,40(s0)
   105ee:	c81c                	sw	a5,16(s0)
   105f0:	4621                	li	a2,8
   105f2:	4581                	li	a1,0
   105f4:	0a440513          	addi	a0,s0,164
   105f8:	4c6000ef          	jal	10abe <memset>
   105fc:	04043c23          	sd	zero,88(s0)
   10600:	06042023          	sw	zero,96(s0)
   10604:	06043c23          	sd	zero,120(s0)
   10608:	08042023          	sw	zero,128(s0)
   1060c:	70a2                	ld	ra,40(sp)
   1060e:	8522                	mv	a0,s0
   10610:	7402                	ld	s0,32(sp)
   10612:	64e2                	ld	s1,24(sp)
   10614:	6942                	ld	s2,16(sp)
   10616:	69a2                	ld	s3,8(sp)
   10618:	6145                	addi	sp,sp,48
   1061a:	8082                	ret
   1061c:	6080                	ld	s0,0(s1)
   1061e:	c019                	beqz	s0,10624 <__sfp+0x92>
   10620:	84a2                	mv	s1,s0
   10622:	b779                	j	105b0 <__sfp+0x1e>
   10624:	2d800593          	li	a1,728
   10628:	854a                	mv	a0,s2
   1062a:	1c1000ef          	jal	10fea <_malloc_r>
   1062e:	842a                	mv	s0,a0
   10630:	c115                	beqz	a0,10654 <__sfp+0xc2>
   10632:	4791                	li	a5,4
   10634:	0561                	addi	a0,a0,24
   10636:	00043023          	sd	zero,0(s0)
   1063a:	c41c                	sw	a5,8(s0)
   1063c:	e808                	sd	a0,16(s0)
   1063e:	2c000613          	li	a2,704
   10642:	4581                	li	a1,0
   10644:	47a000ef          	jal	10abe <memset>
   10648:	e080                	sd	s0,0(s1)
   1064a:	84a2                	mv	s1,s0
   1064c:	b795                	j	105b0 <__sfp+0x1e>
   1064e:	e41ff0ef          	jal	1048e <global_stdio_init.part.0>
   10652:	bf91                	j	105a6 <__sfp+0x14>
   10654:	0004b023          	sd	zero,0(s1)
   10658:	47b1                	li	a5,12
   1065a:	00f92023          	sw	a5,0(s2)
   1065e:	b77d                	j	1060c <__sfp+0x7a>

0000000000010660 <__sinit>:
   10660:	653c                	ld	a5,72(a0)
   10662:	c391                	beqz	a5,10666 <__sinit+0x6>
   10664:	8082                	ret
   10666:	67c1                	lui	a5,0x10
   10668:	2381b703          	ld	a4,568(gp) # 1bcc8 <__stdio_exit_handler>
   1066c:	44678793          	addi	a5,a5,1094 # 10446 <cleanup_stdio>
   10670:	e53c                	sd	a5,72(a0)
   10672:	fb6d                	bnez	a4,10664 <__sinit+0x4>
   10674:	bd29                	j	1048e <global_stdio_init.part.0>

0000000000010676 <__sfp_lock_acquire>:
   10676:	8082                	ret

0000000000010678 <__sfp_lock_release>:
   10678:	8082                	ret

000000000001067a <__fp_lock_all>:
   1067a:	666d                	lui	a2,0x1b
   1067c:	65c1                	lui	a1,0x10
   1067e:	10860613          	addi	a2,a2,264 # 1b108 <__sglue>
   10682:	42e58593          	addi	a1,a1,1070 # 1042e <__fp_lock>
   10686:	4501                	li	a0,0
   10688:	a809                	j	1069a <_fwalk_sglue>

000000000001068a <__fp_unlock_all>:
   1068a:	666d                	lui	a2,0x1b
   1068c:	65c1                	lui	a1,0x10
   1068e:	10860613          	addi	a2,a2,264 # 1b108 <__sglue>
   10692:	48a58593          	addi	a1,a1,1162 # 1048a <__fp_unlock>
   10696:	4501                	li	a0,0
   10698:	a009                	j	1069a <_fwalk_sglue>

000000000001069a <_fwalk_sglue>:
   1069a:	715d                	addi	sp,sp,-80
   1069c:	f84a                	sd	s2,48(sp)
   1069e:	f44e                	sd	s3,40(sp)
   106a0:	f052                	sd	s4,32(sp)
   106a2:	ec56                	sd	s5,24(sp)
   106a4:	e85a                	sd	s6,16(sp)
   106a6:	e45e                	sd	s7,8(sp)
   106a8:	e062                	sd	s8,0(sp)
   106aa:	e486                	sd	ra,72(sp)
   106ac:	e0a2                	sd	s0,64(sp)
   106ae:	fc26                	sd	s1,56(sp)
   106b0:	8a2a                	mv	s4,a0
   106b2:	8b2e                	mv	s6,a1
   106b4:	89b2                	mv	s3,a2
   106b6:	4901                	li	s2,0
   106b8:	0b000b93          	li	s7,176
   106bc:	4c05                	li	s8,1
   106be:	5afd                	li	s5,-1
   106c0:	0089a483          	lw	s1,8(s3)
   106c4:	0109b403          	ld	s0,16(s3)
   106c8:	02905963          	blez	s1,106fa <_fwalk_sglue+0x60>
   106cc:	1482                	slli	s1,s1,0x20
   106ce:	9081                	srli	s1,s1,0x20
   106d0:	037484b3          	mul	s1,s1,s7
   106d4:	94a2                	add	s1,s1,s0
   106d6:	01045783          	lhu	a5,16(s0)
   106da:	00fc7c63          	bgeu	s8,a5,106f2 <_fwalk_sglue+0x58>
   106de:	01241783          	lh	a5,18(s0)
   106e2:	85a2                	mv	a1,s0
   106e4:	8552                	mv	a0,s4
   106e6:	01578663          	beq	a5,s5,106f2 <_fwalk_sglue+0x58>
   106ea:	9b02                	jalr	s6
   106ec:	01256933          	or	s2,a0,s2
   106f0:	2901                	sext.w	s2,s2
   106f2:	0b040413          	addi	s0,s0,176
   106f6:	fe9410e3          	bne	s0,s1,106d6 <_fwalk_sglue+0x3c>
   106fa:	0009b983          	ld	s3,0(s3)
   106fe:	fc0991e3          	bnez	s3,106c0 <_fwalk_sglue+0x26>
   10702:	60a6                	ld	ra,72(sp)
   10704:	6406                	ld	s0,64(sp)
   10706:	74e2                	ld	s1,56(sp)
   10708:	79a2                	ld	s3,40(sp)
   1070a:	7a02                	ld	s4,32(sp)
   1070c:	6ae2                	ld	s5,24(sp)
   1070e:	6b42                	ld	s6,16(sp)
   10710:	6ba2                	ld	s7,8(sp)
   10712:	6c02                	ld	s8,0(sp)
   10714:	854a                	mv	a0,s2
   10716:	7942                	ld	s2,48(sp)
   10718:	6161                	addi	sp,sp,80
   1071a:	8082                	ret

000000000001071c <_printf_r>:
   1071c:	715d                	addi	sp,sp,-80
   1071e:	8e2e                	mv	t3,a1
   10720:	690c                	ld	a1,16(a0)
   10722:	02010313          	addi	t1,sp,32
   10726:	f032                	sd	a2,32(sp)
   10728:	f436                	sd	a3,40(sp)
   1072a:	8672                	mv	a2,t3
   1072c:	869a                	mv	a3,t1
   1072e:	ec06                	sd	ra,24(sp)
   10730:	f83a                	sd	a4,48(sp)
   10732:	fc3e                	sd	a5,56(sp)
   10734:	e0c2                	sd	a6,64(sp)
   10736:	e4c6                	sd	a7,72(sp)
   10738:	e41a                	sd	t1,8(sp)
   1073a:	6e1000ef          	jal	1161a <_vfprintf_r>
   1073e:	60e2                	ld	ra,24(sp)
   10740:	6161                	addi	sp,sp,80
   10742:	8082                	ret

0000000000010744 <printf>:
   10744:	2201b303          	ld	t1,544(gp) # 1bcb0 <_impure_ptr>
   10748:	711d                	addi	sp,sp,-96
   1074a:	f832                	sd	a2,48(sp)
   1074c:	fc36                	sd	a3,56(sp)
   1074e:	f42e                	sd	a1,40(sp)
   10750:	e0ba                	sd	a4,64(sp)
   10752:	e4be                	sd	a5,72(sp)
   10754:	e8c2                	sd	a6,80(sp)
   10756:	ecc6                	sd	a7,88(sp)
   10758:	01033583          	ld	a1,16(t1) # 101de <multiplyMatrices+0x6>
   1075c:	1034                	addi	a3,sp,40
   1075e:	862a                	mv	a2,a0
   10760:	851a                	mv	a0,t1
   10762:	ec06                	sd	ra,24(sp)
   10764:	e436                	sd	a3,8(sp)
   10766:	6b5000ef          	jal	1161a <_vfprintf_r>
   1076a:	60e2                	ld	ra,24(sp)
   1076c:	6125                	addi	sp,sp,96
   1076e:	8082                	ret

0000000000010770 <_putchar_r>:
   10770:	6910                	ld	a2,16(a0)
   10772:	6800306f          	j	13df2 <_putc_r>

0000000000010776 <putchar>:
   10776:	2201b783          	ld	a5,544(gp) # 1bcb0 <_impure_ptr>
   1077a:	85aa                	mv	a1,a0
   1077c:	6b90                	ld	a2,16(a5)
   1077e:	853e                	mv	a0,a5
   10780:	6720306f          	j	13df2 <_putc_r>

0000000000010784 <_puts_r>:
   10784:	7159                	addi	sp,sp,-112
   10786:	f0a2                	sd	s0,96(sp)
   10788:	842a                	mv	s0,a0
   1078a:	852e                	mv	a0,a1
   1078c:	eca6                	sd	s1,88(sp)
   1078e:	f486                	sd	ra,104(sp)
   10790:	84ae                	mv	s1,a1
   10792:	3d6000ef          	jal	10b68 <strlen>
   10796:	67e9                	lui	a5,0x1a
   10798:	6438                	ld	a4,72(s0)
   1079a:	4585                	li	a1,1
   1079c:	00150813          	addi	a6,a0,1
   107a0:	8f078793          	addi	a5,a5,-1808 # 198f0 <__clzdi2+0xc4>
   107a4:	1810                	addi	a2,sp,48
   107a6:	4689                	li	a3,2
   107a8:	e4ae                	sd	a1,72(sp)
   107aa:	f826                	sd	s1,48(sp)
   107ac:	fc2a                	sd	a0,56(sp)
   107ae:	f442                	sd	a6,40(sp)
   107b0:	e0be                	sd	a5,64(sp)
   107b2:	ec32                	sd	a2,24(sp)
   107b4:	d036                	sw	a3,32(sp)
   107b6:	680c                	ld	a1,16(s0)
   107b8:	c339                	beqz	a4,107fe <_puts_r+0x7a>
   107ba:	01059783          	lh	a5,16(a1)
   107be:	0ac5a703          	lw	a4,172(a1)
   107c2:	6609                	lui	a2,0x2
   107c4:	03279693          	slli	a3,a5,0x32
   107c8:	0206c563          	bltz	a3,107f2 <_puts_r+0x6e>
   107cc:	76f9                	lui	a3,0xffffe
   107ce:	16fd                	addi	a3,a3,-1 # ffffffffffffdfff <__BSS_END__+0xfffffffffffe1d6f>
   107d0:	8fd1                	or	a5,a5,a2
   107d2:	8f75                	and	a4,a4,a3
   107d4:	00f59823          	sh	a5,16(a1)
   107d8:	0ae5a623          	sw	a4,172(a1)
   107dc:	8522                	mv	a0,s0
   107de:	0830                	addi	a2,sp,24
   107e0:	2c2030ef          	jal	13aa2 <__sfvwrite_r>
   107e4:	e919                	bnez	a0,107fa <_puts_r+0x76>
   107e6:	4529                	li	a0,10
   107e8:	70a6                	ld	ra,104(sp)
   107ea:	7406                	ld	s0,96(sp)
   107ec:	64e6                	ld	s1,88(sp)
   107ee:	6165                	addi	sp,sp,112
   107f0:	8082                	ret
   107f2:	03271793          	slli	a5,a4,0x32
   107f6:	fe07d3e3          	bgez	a5,107dc <_puts_r+0x58>
   107fa:	557d                	li	a0,-1
   107fc:	b7f5                	j	107e8 <_puts_r+0x64>
   107fe:	8522                	mv	a0,s0
   10800:	e42e                	sd	a1,8(sp)
   10802:	e5fff0ef          	jal	10660 <__sinit>
   10806:	65a2                	ld	a1,8(sp)
   10808:	bf4d                	j	107ba <_puts_r+0x36>

000000000001080a <puts>:
   1080a:	85aa                	mv	a1,a0
   1080c:	2201b503          	ld	a0,544(gp) # 1bcb0 <_impure_ptr>
   10810:	bf95                	j	10784 <_puts_r>

0000000000010812 <__sread>:
   10812:	1141                	addi	sp,sp,-16
   10814:	e022                	sd	s0,0(sp)
   10816:	842e                	mv	s0,a1
   10818:	01259583          	lh	a1,18(a1)
   1081c:	e406                	sd	ra,8(sp)
   1081e:	1be000ef          	jal	109dc <_read_r>
   10822:	00054963          	bltz	a0,10834 <__sread+0x22>
   10826:	685c                	ld	a5,144(s0)
   10828:	60a2                	ld	ra,8(sp)
   1082a:	97aa                	add	a5,a5,a0
   1082c:	e85c                	sd	a5,144(s0)
   1082e:	6402                	ld	s0,0(sp)
   10830:	0141                	addi	sp,sp,16
   10832:	8082                	ret
   10834:	01045783          	lhu	a5,16(s0)
   10838:	777d                	lui	a4,0xfffff
   1083a:	177d                	addi	a4,a4,-1 # ffffffffffffefff <__BSS_END__+0xfffffffffffe2d6f>
   1083c:	8ff9                	and	a5,a5,a4
   1083e:	60a2                	ld	ra,8(sp)
   10840:	00f41823          	sh	a5,16(s0)
   10844:	6402                	ld	s0,0(sp)
   10846:	0141                	addi	sp,sp,16
   10848:	8082                	ret

000000000001084a <__seofread>:
   1084a:	4501                	li	a0,0
   1084c:	8082                	ret

000000000001084e <__swrite>:
   1084e:	01059783          	lh	a5,16(a1)
   10852:	7179                	addi	sp,sp,-48
   10854:	f022                	sd	s0,32(sp)
   10856:	ec26                	sd	s1,24(sp)
   10858:	e84a                	sd	s2,16(sp)
   1085a:	e44e                	sd	s3,8(sp)
   1085c:	f406                	sd	ra,40(sp)
   1085e:	1007f713          	andi	a4,a5,256
   10862:	842e                	mv	s0,a1
   10864:	8932                	mv	s2,a2
   10866:	89b6                	mv	s3,a3
   10868:	84aa                	mv	s1,a0
   1086a:	e315                	bnez	a4,1088e <__swrite+0x40>
   1086c:	777d                	lui	a4,0xfffff
   1086e:	177d                	addi	a4,a4,-1 # ffffffffffffefff <__BSS_END__+0xfffffffffffe2d6f>
   10870:	8ff9                	and	a5,a5,a4
   10872:	01241583          	lh	a1,18(s0)
   10876:	00f41823          	sh	a5,16(s0)
   1087a:	7402                	ld	s0,32(sp)
   1087c:	70a2                	ld	ra,40(sp)
   1087e:	86ce                	mv	a3,s3
   10880:	864a                	mv	a2,s2
   10882:	69a2                	ld	s3,8(sp)
   10884:	6942                	ld	s2,16(sp)
   10886:	8526                	mv	a0,s1
   10888:	64e2                	ld	s1,24(sp)
   1088a:	6145                	addi	sp,sp,48
   1088c:	a271                	j	10a18 <_write_r>
   1088e:	01259583          	lh	a1,18(a1)
   10892:	4689                	li	a3,2
   10894:	4601                	li	a2,0
   10896:	10a000ef          	jal	109a0 <_lseek_r>
   1089a:	01041783          	lh	a5,16(s0)
   1089e:	b7f9                	j	1086c <__swrite+0x1e>

00000000000108a0 <__sseek>:
   108a0:	1141                	addi	sp,sp,-16
   108a2:	e022                	sd	s0,0(sp)
   108a4:	842e                	mv	s0,a1
   108a6:	01259583          	lh	a1,18(a1)
   108aa:	e406                	sd	ra,8(sp)
   108ac:	0f4000ef          	jal	109a0 <_lseek_r>
   108b0:	577d                	li	a4,-1
   108b2:	01041783          	lh	a5,16(s0)
   108b6:	00e50b63          	beq	a0,a4,108cc <__sseek+0x2c>
   108ba:	6705                	lui	a4,0x1
   108bc:	8fd9                	or	a5,a5,a4
   108be:	60a2                	ld	ra,8(sp)
   108c0:	e848                	sd	a0,144(s0)
   108c2:	00f41823          	sh	a5,16(s0)
   108c6:	6402                	ld	s0,0(sp)
   108c8:	0141                	addi	sp,sp,16
   108ca:	8082                	ret
   108cc:	777d                	lui	a4,0xfffff
   108ce:	177d                	addi	a4,a4,-1 # ffffffffffffefff <__BSS_END__+0xfffffffffffe2d6f>
   108d0:	8ff9                	and	a5,a5,a4
   108d2:	60a2                	ld	ra,8(sp)
   108d4:	00f41823          	sh	a5,16(s0)
   108d8:	6402                	ld	s0,0(sp)
   108da:	0141                	addi	sp,sp,16
   108dc:	8082                	ret

00000000000108de <__sclose>:
   108de:	01259583          	lh	a1,18(a1)
   108e2:	a009                	j	108e4 <_close_r>

00000000000108e4 <_close_r>:
   108e4:	1101                	addi	sp,sp,-32
   108e6:	e822                	sd	s0,16(sp)
   108e8:	e426                	sd	s1,8(sp)
   108ea:	842a                	mv	s0,a0
   108ec:	852e                	mv	a0,a1
   108ee:	ec06                	sd	ra,24(sp)
   108f0:	2401a023          	sw	zero,576(gp) # 1bcd0 <errno>
   108f4:	31d070ef          	jal	18410 <_close>
   108f8:	57fd                	li	a5,-1
   108fa:	00f50763          	beq	a0,a5,10908 <_close_r+0x24>
   108fe:	60e2                	ld	ra,24(sp)
   10900:	6442                	ld	s0,16(sp)
   10902:	64a2                	ld	s1,8(sp)
   10904:	6105                	addi	sp,sp,32
   10906:	8082                	ret
   10908:	2401a783          	lw	a5,576(gp) # 1bcd0 <errno>
   1090c:	dbed                	beqz	a5,108fe <_close_r+0x1a>
   1090e:	60e2                	ld	ra,24(sp)
   10910:	c01c                	sw	a5,0(s0)
   10912:	6442                	ld	s0,16(sp)
   10914:	64a2                	ld	s1,8(sp)
   10916:	6105                	addi	sp,sp,32
   10918:	8082                	ret

000000000001091a <_reclaim_reent>:
   1091a:	2201b783          	ld	a5,544(gp) # 1bcb0 <_impure_ptr>
   1091e:	08a78063          	beq	a5,a0,1099e <_reclaim_reent+0x84>
   10922:	752c                	ld	a1,104(a0)
   10924:	7179                	addi	sp,sp,-48
   10926:	ec26                	sd	s1,24(sp)
   10928:	f406                	sd	ra,40(sp)
   1092a:	f022                	sd	s0,32(sp)
   1092c:	84aa                	mv	s1,a0
   1092e:	c98d                	beqz	a1,10960 <_reclaim_reent+0x46>
   10930:	e84a                	sd	s2,16(sp)
   10932:	e44e                	sd	s3,8(sp)
   10934:	4901                	li	s2,0
   10936:	20000993          	li	s3,512
   1093a:	012587b3          	add	a5,a1,s2
   1093e:	6380                	ld	s0,0(a5)
   10940:	c801                	beqz	s0,10950 <_reclaim_reent+0x36>
   10942:	85a2                	mv	a1,s0
   10944:	6000                	ld	s0,0(s0)
   10946:	8526                	mv	a0,s1
   10948:	460000ef          	jal	10da8 <_free_r>
   1094c:	f87d                	bnez	s0,10942 <_reclaim_reent+0x28>
   1094e:	74ac                	ld	a1,104(s1)
   10950:	0921                	addi	s2,s2,8
   10952:	ff3914e3          	bne	s2,s3,1093a <_reclaim_reent+0x20>
   10956:	8526                	mv	a0,s1
   10958:	450000ef          	jal	10da8 <_free_r>
   1095c:	6942                	ld	s2,16(sp)
   1095e:	69a2                	ld	s3,8(sp)
   10960:	68ac                	ld	a1,80(s1)
   10962:	c581                	beqz	a1,1096a <_reclaim_reent+0x50>
   10964:	8526                	mv	a0,s1
   10966:	442000ef          	jal	10da8 <_free_r>
   1096a:	70a0                	ld	s0,96(s1)
   1096c:	c419                	beqz	s0,1097a <_reclaim_reent+0x60>
   1096e:	85a2                	mv	a1,s0
   10970:	6000                	ld	s0,0(s0)
   10972:	8526                	mv	a0,s1
   10974:	434000ef          	jal	10da8 <_free_r>
   10978:	f87d                	bnez	s0,1096e <_reclaim_reent+0x54>
   1097a:	7cac                	ld	a1,120(s1)
   1097c:	c581                	beqz	a1,10984 <_reclaim_reent+0x6a>
   1097e:	8526                	mv	a0,s1
   10980:	428000ef          	jal	10da8 <_free_r>
   10984:	64bc                	ld	a5,72(s1)
   10986:	c799                	beqz	a5,10994 <_reclaim_reent+0x7a>
   10988:	7402                	ld	s0,32(sp)
   1098a:	70a2                	ld	ra,40(sp)
   1098c:	8526                	mv	a0,s1
   1098e:	64e2                	ld	s1,24(sp)
   10990:	6145                	addi	sp,sp,48
   10992:	8782                	jr	a5
   10994:	70a2                	ld	ra,40(sp)
   10996:	7402                	ld	s0,32(sp)
   10998:	64e2                	ld	s1,24(sp)
   1099a:	6145                	addi	sp,sp,48
   1099c:	8082                	ret
   1099e:	8082                	ret

00000000000109a0 <_lseek_r>:
   109a0:	1101                	addi	sp,sp,-32
   109a2:	872e                	mv	a4,a1
   109a4:	e822                	sd	s0,16(sp)
   109a6:	e426                	sd	s1,8(sp)
   109a8:	85b2                	mv	a1,a2
   109aa:	842a                	mv	s0,a0
   109ac:	8636                	mv	a2,a3
   109ae:	853a                	mv	a0,a4
   109b0:	ec06                	sd	ra,24(sp)
   109b2:	2401a023          	sw	zero,576(gp) # 1bcd0 <errno>
   109b6:	327070ef          	jal	184dc <_lseek>
   109ba:	57fd                	li	a5,-1
   109bc:	00f50763          	beq	a0,a5,109ca <_lseek_r+0x2a>
   109c0:	60e2                	ld	ra,24(sp)
   109c2:	6442                	ld	s0,16(sp)
   109c4:	64a2                	ld	s1,8(sp)
   109c6:	6105                	addi	sp,sp,32
   109c8:	8082                	ret
   109ca:	2401a783          	lw	a5,576(gp) # 1bcd0 <errno>
   109ce:	dbed                	beqz	a5,109c0 <_lseek_r+0x20>
   109d0:	60e2                	ld	ra,24(sp)
   109d2:	c01c                	sw	a5,0(s0)
   109d4:	6442                	ld	s0,16(sp)
   109d6:	64a2                	ld	s1,8(sp)
   109d8:	6105                	addi	sp,sp,32
   109da:	8082                	ret

00000000000109dc <_read_r>:
   109dc:	1101                	addi	sp,sp,-32
   109de:	872e                	mv	a4,a1
   109e0:	e822                	sd	s0,16(sp)
   109e2:	e426                	sd	s1,8(sp)
   109e4:	85b2                	mv	a1,a2
   109e6:	842a                	mv	s0,a0
   109e8:	8636                	mv	a2,a3
   109ea:	853a                	mv	a0,a4
   109ec:	ec06                	sd	ra,24(sp)
   109ee:	2401a023          	sw	zero,576(gp) # 1bcd0 <errno>
   109f2:	317070ef          	jal	18508 <_read>
   109f6:	57fd                	li	a5,-1
   109f8:	00f50763          	beq	a0,a5,10a06 <_read_r+0x2a>
   109fc:	60e2                	ld	ra,24(sp)
   109fe:	6442                	ld	s0,16(sp)
   10a00:	64a2                	ld	s1,8(sp)
   10a02:	6105                	addi	sp,sp,32
   10a04:	8082                	ret
   10a06:	2401a783          	lw	a5,576(gp) # 1bcd0 <errno>
   10a0a:	dbed                	beqz	a5,109fc <_read_r+0x20>
   10a0c:	60e2                	ld	ra,24(sp)
   10a0e:	c01c                	sw	a5,0(s0)
   10a10:	6442                	ld	s0,16(sp)
   10a12:	64a2                	ld	s1,8(sp)
   10a14:	6105                	addi	sp,sp,32
   10a16:	8082                	ret

0000000000010a18 <_write_r>:
   10a18:	1101                	addi	sp,sp,-32
   10a1a:	872e                	mv	a4,a1
   10a1c:	e822                	sd	s0,16(sp)
   10a1e:	e426                	sd	s1,8(sp)
   10a20:	85b2                	mv	a1,a2
   10a22:	842a                	mv	s0,a0
   10a24:	8636                	mv	a2,a3
   10a26:	853a                	mv	a0,a4
   10a28:	ec06                	sd	ra,24(sp)
   10a2a:	2401a023          	sw	zero,576(gp) # 1bcd0 <errno>
   10a2e:	35b070ef          	jal	18588 <_write>
   10a32:	57fd                	li	a5,-1
   10a34:	00f50763          	beq	a0,a5,10a42 <_write_r+0x2a>
   10a38:	60e2                	ld	ra,24(sp)
   10a3a:	6442                	ld	s0,16(sp)
   10a3c:	64a2                	ld	s1,8(sp)
   10a3e:	6105                	addi	sp,sp,32
   10a40:	8082                	ret
   10a42:	2401a783          	lw	a5,576(gp) # 1bcd0 <errno>
   10a46:	dbed                	beqz	a5,10a38 <_write_r+0x20>
   10a48:	60e2                	ld	ra,24(sp)
   10a4a:	c01c                	sw	a5,0(s0)
   10a4c:	6442                	ld	s0,16(sp)
   10a4e:	64a2                	ld	s1,8(sp)
   10a50:	6105                	addi	sp,sp,32
   10a52:	8082                	ret

0000000000010a54 <__libc_init_array>:
   10a54:	1101                	addi	sp,sp,-32
   10a56:	e822                	sd	s0,16(sp)
   10a58:	67ed                	lui	a5,0x1b
   10a5a:	646d                	lui	s0,0x1b
   10a5c:	e04a                	sd	s2,0(sp)
   10a5e:	0ec78793          	addi	a5,a5,236 # 1b0ec <__preinit_array_end>
   10a62:	0ec40713          	addi	a4,s0,236 # 1b0ec <__preinit_array_end>
   10a66:	ec06                	sd	ra,24(sp)
   10a68:	e426                	sd	s1,8(sp)
   10a6a:	40e78933          	sub	s2,a5,a4
   10a6e:	00e78d63          	beq	a5,a4,10a88 <__libc_init_array+0x34>
   10a72:	40395913          	srai	s2,s2,0x3
   10a76:	0ec40413          	addi	s0,s0,236
   10a7a:	4481                	li	s1,0
   10a7c:	601c                	ld	a5,0(s0)
   10a7e:	0485                	addi	s1,s1,1
   10a80:	0421                	addi	s0,s0,8
   10a82:	9782                	jalr	a5
   10a84:	ff24ece3          	bltu	s1,s2,10a7c <__libc_init_array+0x28>
   10a88:	67ed                	lui	a5,0x1b
   10a8a:	646d                	lui	s0,0x1b
   10a8c:	10078793          	addi	a5,a5,256 # 1b100 <__do_global_dtors_aux_fini_array_entry>
   10a90:	0f040713          	addi	a4,s0,240 # 1b0f0 <__init_array_start>
   10a94:	40e78933          	sub	s2,a5,a4
   10a98:	40395913          	srai	s2,s2,0x3
   10a9c:	00e78b63          	beq	a5,a4,10ab2 <__libc_init_array+0x5e>
   10aa0:	0f040413          	addi	s0,s0,240
   10aa4:	4481                	li	s1,0
   10aa6:	601c                	ld	a5,0(s0)
   10aa8:	0485                	addi	s1,s1,1
   10aaa:	0421                	addi	s0,s0,8
   10aac:	9782                	jalr	a5
   10aae:	ff24ece3          	bltu	s1,s2,10aa6 <__libc_init_array+0x52>
   10ab2:	60e2                	ld	ra,24(sp)
   10ab4:	6442                	ld	s0,16(sp)
   10ab6:	64a2                	ld	s1,8(sp)
   10ab8:	6902                	ld	s2,0(sp)
   10aba:	6105                	addi	sp,sp,32
   10abc:	8082                	ret

0000000000010abe <memset>:
   10abe:	433d                	li	t1,15
   10ac0:	872a                	mv	a4,a0
   10ac2:	02c37163          	bgeu	t1,a2,10ae4 <memset+0x26>
   10ac6:	00f77793          	andi	a5,a4,15
   10aca:	e3c1                	bnez	a5,10b4a <memset+0x8c>
   10acc:	e1bd                	bnez	a1,10b32 <memset+0x74>
   10ace:	ff067693          	andi	a3,a2,-16
   10ad2:	8a3d                	andi	a2,a2,15
   10ad4:	96ba                	add	a3,a3,a4
   10ad6:	e30c                	sd	a1,0(a4)
   10ad8:	e70c                	sd	a1,8(a4)
   10ada:	0741                	addi	a4,a4,16
   10adc:	fed76de3          	bltu	a4,a3,10ad6 <memset+0x18>
   10ae0:	e211                	bnez	a2,10ae4 <memset+0x26>
   10ae2:	8082                	ret
   10ae4:	40c306b3          	sub	a3,t1,a2
   10ae8:	068a                	slli	a3,a3,0x2
   10aea:	00000297          	auipc	t0,0x0
   10aee:	9696                	add	a3,a3,t0
   10af0:	00a68067          	jr	10(a3)
   10af4:	00b70723          	sb	a1,14(a4)
   10af8:	00b706a3          	sb	a1,13(a4)
   10afc:	00b70623          	sb	a1,12(a4)
   10b00:	00b705a3          	sb	a1,11(a4)
   10b04:	00b70523          	sb	a1,10(a4)
   10b08:	00b704a3          	sb	a1,9(a4)
   10b0c:	00b70423          	sb	a1,8(a4)
   10b10:	00b703a3          	sb	a1,7(a4)
   10b14:	00b70323          	sb	a1,6(a4)
   10b18:	00b702a3          	sb	a1,5(a4)
   10b1c:	00b70223          	sb	a1,4(a4)
   10b20:	00b701a3          	sb	a1,3(a4)
   10b24:	00b70123          	sb	a1,2(a4)
   10b28:	00b700a3          	sb	a1,1(a4)
   10b2c:	00b70023          	sb	a1,0(a4)
   10b30:	8082                	ret
   10b32:	0ff5f593          	zext.b	a1,a1
   10b36:	00859693          	slli	a3,a1,0x8
   10b3a:	8dd5                	or	a1,a1,a3
   10b3c:	01059693          	slli	a3,a1,0x10
   10b40:	8dd5                	or	a1,a1,a3
   10b42:	02059693          	slli	a3,a1,0x20
   10b46:	8dd5                	or	a1,a1,a3
   10b48:	b759                	j	10ace <memset+0x10>
   10b4a:	00279693          	slli	a3,a5,0x2
   10b4e:	00000297          	auipc	t0,0x0
   10b52:	9696                	add	a3,a3,t0
   10b54:	8286                	mv	t0,ra
   10b56:	fa2680e7          	jalr	-94(a3)
   10b5a:	8096                	mv	ra,t0
   10b5c:	17c1                	addi	a5,a5,-16
   10b5e:	8f1d                	sub	a4,a4,a5
   10b60:	963e                	add	a2,a2,a5
   10b62:	f8c371e3          	bgeu	t1,a2,10ae4 <memset+0x26>
   10b66:	b79d                	j	10acc <memset+0xe>

0000000000010b68 <strlen>:
   10b68:	00757793          	andi	a5,a0,7
   10b6c:	872a                	mv	a4,a0
   10b6e:	efb1                	bnez	a5,10bca <strlen+0x62>
   10b70:	7f7f87b7          	lui	a5,0x7f7f8
   10b74:	f7f78793          	addi	a5,a5,-129 # 7f7f7f7f <__BSS_END__+0x7f7dbcef>
   10b78:	02079693          	slli	a3,a5,0x20
   10b7c:	96be                	add	a3,a3,a5
   10b7e:	55fd                	li	a1,-1
   10b80:	6310                	ld	a2,0(a4)
   10b82:	0721                	addi	a4,a4,8
   10b84:	00d677b3          	and	a5,a2,a3
   10b88:	97b6                	add	a5,a5,a3
   10b8a:	8fd1                	or	a5,a5,a2
   10b8c:	8fd5                	or	a5,a5,a3
   10b8e:	feb789e3          	beq	a5,a1,10b80 <strlen+0x18>
   10b92:	ff874683          	lbu	a3,-8(a4)
   10b96:	40a707b3          	sub	a5,a4,a0
   10b9a:	c6a9                	beqz	a3,10be4 <strlen+0x7c>
   10b9c:	ff974683          	lbu	a3,-7(a4)
   10ba0:	ce9d                	beqz	a3,10bde <strlen+0x76>
   10ba2:	ffa74683          	lbu	a3,-6(a4)
   10ba6:	c6a9                	beqz	a3,10bf0 <strlen+0x88>
   10ba8:	ffb74683          	lbu	a3,-5(a4)
   10bac:	ce9d                	beqz	a3,10bea <strlen+0x82>
   10bae:	ffc74683          	lbu	a3,-4(a4)
   10bb2:	c2b1                	beqz	a3,10bf6 <strlen+0x8e>
   10bb4:	ffd74683          	lbu	a3,-3(a4)
   10bb8:	c2b1                	beqz	a3,10bfc <strlen+0x94>
   10bba:	ffe74503          	lbu	a0,-2(a4)
   10bbe:	00a03533          	snez	a0,a0
   10bc2:	953e                	add	a0,a0,a5
   10bc4:	1579                	addi	a0,a0,-2
   10bc6:	8082                	ret
   10bc8:	d6c5                	beqz	a3,10b70 <strlen+0x8>
   10bca:	00074783          	lbu	a5,0(a4)
   10bce:	0705                	addi	a4,a4,1
   10bd0:	00777693          	andi	a3,a4,7
   10bd4:	fbf5                	bnez	a5,10bc8 <strlen+0x60>
   10bd6:	8f09                	sub	a4,a4,a0
   10bd8:	fff70513          	addi	a0,a4,-1
   10bdc:	8082                	ret
   10bde:	ff978513          	addi	a0,a5,-7
   10be2:	8082                	ret
   10be4:	ff878513          	addi	a0,a5,-8
   10be8:	8082                	ret
   10bea:	ffb78513          	addi	a0,a5,-5
   10bee:	8082                	ret
   10bf0:	ffa78513          	addi	a0,a5,-6
   10bf4:	8082                	ret
   10bf6:	ffc78513          	addi	a0,a5,-4
   10bfa:	8082                	ret
   10bfc:	ffd78513          	addi	a0,a5,-3
   10c00:	8082                	ret

0000000000010c02 <__call_exitprocs>:
   10c02:	715d                	addi	sp,sp,-80
   10c04:	f052                	sd	s4,32(sp)
   10c06:	f84a                	sd	s2,48(sp)
   10c08:	2481b903          	ld	s2,584(gp) # 1bcd8 <__atexit>
   10c0c:	e486                	sd	ra,72(sp)
   10c0e:	04090663          	beqz	s2,10c5a <__call_exitprocs+0x58>
   10c12:	f44e                	sd	s3,40(sp)
   10c14:	ec56                	sd	s5,24(sp)
   10c16:	e85a                	sd	s6,16(sp)
   10c18:	e45e                	sd	s7,8(sp)
   10c1a:	e0a2                	sd	s0,64(sp)
   10c1c:	fc26                	sd	s1,56(sp)
   10c1e:	e062                	sd	s8,0(sp)
   10c20:	8b2a                	mv	s6,a0
   10c22:	8bae                	mv	s7,a1
   10c24:	59fd                	li	s3,-1
   10c26:	4a85                	li	s5,1
   10c28:	00892483          	lw	s1,8(s2)
   10c2c:	fff4841b          	addiw	s0,s1,-1
   10c30:	00044e63          	bltz	s0,10c4c <__call_exitprocs+0x4a>
   10c34:	048e                	slli	s1,s1,0x3
   10c36:	94ca                	add	s1,s1,s2
   10c38:	020b8663          	beqz	s7,10c64 <__call_exitprocs+0x62>
   10c3c:	2084b783          	ld	a5,520(s1)
   10c40:	03778263          	beq	a5,s7,10c64 <__call_exitprocs+0x62>
   10c44:	347d                	addiw	s0,s0,-1
   10c46:	14e1                	addi	s1,s1,-8
   10c48:	ff341ae3          	bne	s0,s3,10c3c <__call_exitprocs+0x3a>
   10c4c:	6406                	ld	s0,64(sp)
   10c4e:	74e2                	ld	s1,56(sp)
   10c50:	79a2                	ld	s3,40(sp)
   10c52:	6ae2                	ld	s5,24(sp)
   10c54:	6b42                	ld	s6,16(sp)
   10c56:	6ba2                	ld	s7,8(sp)
   10c58:	6c02                	ld	s8,0(sp)
   10c5a:	60a6                	ld	ra,72(sp)
   10c5c:	7942                	ld	s2,48(sp)
   10c5e:	7a02                	ld	s4,32(sp)
   10c60:	6161                	addi	sp,sp,80
   10c62:	8082                	ret
   10c64:	00892783          	lw	a5,8(s2)
   10c68:	6494                	ld	a3,8(s1)
   10c6a:	37fd                	addiw	a5,a5,-1
   10c6c:	04878c63          	beq	a5,s0,10cc4 <__call_exitprocs+0xc2>
   10c70:	0004b423          	sd	zero,8(s1)
   10c74:	c295                	beqz	a3,10c98 <__call_exitprocs+0x96>
   10c76:	31092783          	lw	a5,784(s2)
   10c7a:	008a973b          	sllw	a4,s5,s0
   10c7e:	00892c03          	lw	s8,8(s2)
   10c82:	8ff9                	and	a5,a5,a4
   10c84:	ef99                	bnez	a5,10ca2 <__call_exitprocs+0xa0>
   10c86:	9682                	jalr	a3
   10c88:	00892703          	lw	a4,8(s2)
   10c8c:	2481b783          	ld	a5,584(gp) # 1bcd8 <__atexit>
   10c90:	03871763          	bne	a4,s8,10cbe <__call_exitprocs+0xbc>
   10c94:	03279563          	bne	a5,s2,10cbe <__call_exitprocs+0xbc>
   10c98:	347d                	addiw	s0,s0,-1
   10c9a:	14e1                	addi	s1,s1,-8
   10c9c:	f9341ee3          	bne	s0,s3,10c38 <__call_exitprocs+0x36>
   10ca0:	b775                	j	10c4c <__call_exitprocs+0x4a>
   10ca2:	31492783          	lw	a5,788(s2)
   10ca6:	1084b583          	ld	a1,264(s1)
   10caa:	8f7d                	and	a4,a4,a5
   10cac:	ef19                	bnez	a4,10cca <__call_exitprocs+0xc8>
   10cae:	855a                	mv	a0,s6
   10cb0:	9682                	jalr	a3
   10cb2:	00892703          	lw	a4,8(s2)
   10cb6:	2481b783          	ld	a5,584(gp) # 1bcd8 <__atexit>
   10cba:	fd870de3          	beq	a4,s8,10c94 <__call_exitprocs+0x92>
   10cbe:	d7d9                	beqz	a5,10c4c <__call_exitprocs+0x4a>
   10cc0:	893e                	mv	s2,a5
   10cc2:	b79d                	j	10c28 <__call_exitprocs+0x26>
   10cc4:	00892423          	sw	s0,8(s2)
   10cc8:	b775                	j	10c74 <__call_exitprocs+0x72>
   10cca:	852e                	mv	a0,a1
   10ccc:	9682                	jalr	a3
   10cce:	bf6d                	j	10c88 <__call_exitprocs+0x86>

0000000000010cd0 <atexit>:
   10cd0:	85aa                	mv	a1,a0
   10cd2:	4681                	li	a3,0
   10cd4:	4601                	li	a2,0
   10cd6:	4501                	li	a0,0
   10cd8:	0390306f          	j	14510 <__register_exitproc>

0000000000010cdc <_malloc_trim_r>:
   10cdc:	7179                	addi	sp,sp,-48
   10cde:	e44e                	sd	s3,8(sp)
   10ce0:	69ed                	lui	s3,0x1b
   10ce2:	f022                	sd	s0,32(sp)
   10ce4:	ec26                	sd	s1,24(sp)
   10ce6:	e84a                	sd	s2,16(sp)
   10ce8:	e052                	sd	s4,0(sp)
   10cea:	f406                	sd	ra,40(sp)
   10cec:	8a2e                	mv	s4,a1
   10cee:	892a                	mv	s2,a0
   10cf0:	27898993          	addi	s3,s3,632 # 1b278 <__malloc_av_>
   10cf4:	123000ef          	jal	11616 <__malloc_lock>
   10cf8:	0109b783          	ld	a5,16(s3)
   10cfc:	6405                	lui	s0,0x1
   10cfe:	fdf40413          	addi	s0,s0,-33 # fdf <exit-0xf141>
   10d02:	6784                	ld	s1,8(a5)
   10d04:	6785                	lui	a5,0x1
   10d06:	98f1                	andi	s1,s1,-4
   10d08:	9426                	add	s0,s0,s1
   10d0a:	41440433          	sub	s0,s0,s4
   10d0e:	8031                	srli	s0,s0,0xc
   10d10:	147d                	addi	s0,s0,-1
   10d12:	0432                	slli	s0,s0,0xc
   10d14:	00f44b63          	blt	s0,a5,10d2a <_malloc_trim_r+0x4e>
   10d18:	4581                	li	a1,0
   10d1a:	854a                	mv	a0,s2
   10d1c:	508030ef          	jal	14224 <_sbrk_r>
   10d20:	0109b783          	ld	a5,16(s3)
   10d24:	97a6                	add	a5,a5,s1
   10d26:	00f50e63          	beq	a0,a5,10d42 <_malloc_trim_r+0x66>
   10d2a:	854a                	mv	a0,s2
   10d2c:	0ed000ef          	jal	11618 <__malloc_unlock>
   10d30:	70a2                	ld	ra,40(sp)
   10d32:	7402                	ld	s0,32(sp)
   10d34:	64e2                	ld	s1,24(sp)
   10d36:	6942                	ld	s2,16(sp)
   10d38:	69a2                	ld	s3,8(sp)
   10d3a:	6a02                	ld	s4,0(sp)
   10d3c:	4501                	li	a0,0
   10d3e:	6145                	addi	sp,sp,48
   10d40:	8082                	ret
   10d42:	408005b3          	neg	a1,s0
   10d46:	854a                	mv	a0,s2
   10d48:	4dc030ef          	jal	14224 <_sbrk_r>
   10d4c:	57fd                	li	a5,-1
   10d4e:	02f50963          	beq	a0,a5,10d80 <_malloc_trim_r+0xa4>
   10d52:	4c018793          	addi	a5,gp,1216 # 1bf50 <__malloc_current_mallinfo>
   10d56:	0109b683          	ld	a3,16(s3)
   10d5a:	4398                	lw	a4,0(a5)
   10d5c:	8c81                	sub	s1,s1,s0
   10d5e:	0014e493          	ori	s1,s1,1
   10d62:	854a                	mv	a0,s2
   10d64:	9f01                	subw	a4,a4,s0
   10d66:	e684                	sd	s1,8(a3)
   10d68:	c398                	sw	a4,0(a5)
   10d6a:	0af000ef          	jal	11618 <__malloc_unlock>
   10d6e:	70a2                	ld	ra,40(sp)
   10d70:	7402                	ld	s0,32(sp)
   10d72:	64e2                	ld	s1,24(sp)
   10d74:	6942                	ld	s2,16(sp)
   10d76:	69a2                	ld	s3,8(sp)
   10d78:	6a02                	ld	s4,0(sp)
   10d7a:	4505                	li	a0,1
   10d7c:	6145                	addi	sp,sp,48
   10d7e:	8082                	ret
   10d80:	4581                	li	a1,0
   10d82:	854a                	mv	a0,s2
   10d84:	4a0030ef          	jal	14224 <_sbrk_r>
   10d88:	0109b703          	ld	a4,16(s3)
   10d8c:	46fd                	li	a3,31
   10d8e:	40e507b3          	sub	a5,a0,a4
   10d92:	f8f6dce3          	bge	a3,a5,10d2a <_malloc_trim_r+0x4e>
   10d96:	2281b603          	ld	a2,552(gp) # 1bcb8 <__malloc_sbrk_base>
   10d9a:	0017e793          	ori	a5,a5,1
   10d9e:	8d11                	sub	a0,a0,a2
   10da0:	e71c                	sd	a5,8(a4)
   10da2:	4ca1a023          	sw	a0,1216(gp) # 1bf50 <__malloc_current_mallinfo>
   10da6:	b751                	j	10d2a <_malloc_trim_r+0x4e>

0000000000010da8 <_free_r>:
   10da8:	c5f5                	beqz	a1,10e94 <_free_r+0xec>
   10daa:	1101                	addi	sp,sp,-32
   10dac:	e822                	sd	s0,16(sp)
   10dae:	e426                	sd	s1,8(sp)
   10db0:	842e                	mv	s0,a1
   10db2:	84aa                	mv	s1,a0
   10db4:	ec06                	sd	ra,24(sp)
   10db6:	061000ef          	jal	11616 <__malloc_lock>
   10dba:	ff843503          	ld	a0,-8(s0)
   10dbe:	ff040713          	addi	a4,s0,-16
   10dc2:	65ed                	lui	a1,0x1b
   10dc4:	ffe57793          	andi	a5,a0,-2
   10dc8:	00f70633          	add	a2,a4,a5
   10dcc:	27858593          	addi	a1,a1,632 # 1b278 <__malloc_av_>
   10dd0:	6614                	ld	a3,8(a2)
   10dd2:	0105b803          	ld	a6,16(a1)
   10dd6:	00157893          	andi	a7,a0,1
   10dda:	9af1                	andi	a3,a3,-4
   10ddc:	12c80963          	beq	a6,a2,10f0e <_free_r+0x166>
   10de0:	e614                	sd	a3,8(a2)
   10de2:	00d60833          	add	a6,a2,a3
   10de6:	00883803          	ld	a6,8(a6)
   10dea:	00187813          	andi	a6,a6,1
   10dee:	06089e63          	bnez	a7,10e6a <_free_r+0xc2>
   10df2:	ff043303          	ld	t1,-16(s0)
   10df6:	656d                	lui	a0,0x1b
   10df8:	28850513          	addi	a0,a0,648 # 1b288 <__malloc_av_+0x10>
   10dfc:	40670733          	sub	a4,a4,t1
   10e00:	01073883          	ld	a7,16(a4)
   10e04:	979a                	add	a5,a5,t1
   10e06:	0ea88763          	beq	a7,a0,10ef4 <_free_r+0x14c>
   10e0a:	01873303          	ld	t1,24(a4)
   10e0e:	0068bc23          	sd	t1,24(a7)
   10e12:	01133823          	sd	a7,16(t1)
   10e16:	12080563          	beqz	a6,10f40 <_free_r+0x198>
   10e1a:	0017e693          	ori	a3,a5,1
   10e1e:	e714                	sd	a3,8(a4)
   10e20:	e21c                	sd	a5,0(a2)
   10e22:	1ff00693          	li	a3,511
   10e26:	08f6e163          	bltu	a3,a5,10ea8 <_free_r+0x100>
   10e2a:	838d                	srli	a5,a5,0x3
   10e2c:	2781                	sext.w	a5,a5
   10e2e:	0017869b          	addiw	a3,a5,1 # 1001 <exit-0xf11f>
   10e32:	0016969b          	slliw	a3,a3,0x1
   10e36:	068e                	slli	a3,a3,0x3
   10e38:	0085b803          	ld	a6,8(a1)
   10e3c:	96ae                	add	a3,a3,a1
   10e3e:	6288                	ld	a0,0(a3)
   10e40:	4605                	li	a2,1
   10e42:	4027d79b          	sraiw	a5,a5,0x2
   10e46:	00f617b3          	sll	a5,a2,a5
   10e4a:	0107e7b3          	or	a5,a5,a6
   10e4e:	ff068613          	addi	a2,a3,-16
   10e52:	eb08                	sd	a0,16(a4)
   10e54:	ef10                	sd	a2,24(a4)
   10e56:	e59c                	sd	a5,8(a1)
   10e58:	e298                	sd	a4,0(a3)
   10e5a:	ed18                	sd	a4,24(a0)
   10e5c:	6442                	ld	s0,16(sp)
   10e5e:	60e2                	ld	ra,24(sp)
   10e60:	8526                	mv	a0,s1
   10e62:	64a2                	ld	s1,8(sp)
   10e64:	6105                	addi	sp,sp,32
   10e66:	7b20006f          	j	11618 <__malloc_unlock>
   10e6a:	02081663          	bnez	a6,10e96 <_free_r+0xee>
   10e6e:	656d                	lui	a0,0x1b
   10e70:	97b6                	add	a5,a5,a3
   10e72:	28850513          	addi	a0,a0,648 # 1b288 <__malloc_av_+0x10>
   10e76:	6a14                	ld	a3,16(a2)
   10e78:	0017e893          	ori	a7,a5,1
   10e7c:	00f70833          	add	a6,a4,a5
   10e80:	10a68063          	beq	a3,a0,10f80 <_free_r+0x1d8>
   10e84:	6e10                	ld	a2,24(a2)
   10e86:	ee90                	sd	a2,24(a3)
   10e88:	ea14                	sd	a3,16(a2)
   10e8a:	01173423          	sd	a7,8(a4)
   10e8e:	00f83023          	sd	a5,0(a6)
   10e92:	bf41                	j	10e22 <_free_r+0x7a>
   10e94:	8082                	ret
   10e96:	00156513          	ori	a0,a0,1
   10e9a:	fea43c23          	sd	a0,-8(s0)
   10e9e:	e21c                	sd	a5,0(a2)
   10ea0:	1ff00693          	li	a3,511
   10ea4:	f8f6f3e3          	bgeu	a3,a5,10e2a <_free_r+0x82>
   10ea8:	0097d693          	srli	a3,a5,0x9
   10eac:	4611                	li	a2,4
   10eae:	08d66b63          	bltu	a2,a3,10f44 <_free_r+0x19c>
   10eb2:	0067d693          	srli	a3,a5,0x6
   10eb6:	0396851b          	addiw	a0,a3,57
   10eba:	0015151b          	slliw	a0,a0,0x1
   10ebe:	050e                	slli	a0,a0,0x3
   10ec0:	0386861b          	addiw	a2,a3,56
   10ec4:	952e                	add	a0,a0,a1
   10ec6:	6114                	ld	a3,0(a0)
   10ec8:	1541                	addi	a0,a0,-16
   10eca:	00d51663          	bne	a0,a3,10ed6 <_free_r+0x12e>
   10ece:	a0d1                	j	10f92 <_free_r+0x1ea>
   10ed0:	6a94                	ld	a3,16(a3)
   10ed2:	00d50663          	beq	a0,a3,10ede <_free_r+0x136>
   10ed6:	6690                	ld	a2,8(a3)
   10ed8:	9a71                	andi	a2,a2,-4
   10eda:	fec7ebe3          	bltu	a5,a2,10ed0 <_free_r+0x128>
   10ede:	6e88                	ld	a0,24(a3)
   10ee0:	ef08                	sd	a0,24(a4)
   10ee2:	eb14                	sd	a3,16(a4)
   10ee4:	6442                	ld	s0,16(sp)
   10ee6:	e918                	sd	a4,16(a0)
   10ee8:	60e2                	ld	ra,24(sp)
   10eea:	8526                	mv	a0,s1
   10eec:	64a2                	ld	s1,8(sp)
   10eee:	ee98                	sd	a4,24(a3)
   10ef0:	6105                	addi	sp,sp,32
   10ef2:	a71d                	j	11618 <__malloc_unlock>
   10ef4:	06081963          	bnez	a6,10f66 <_free_r+0x1be>
   10ef8:	6e0c                	ld	a1,24(a2)
   10efa:	6a10                	ld	a2,16(a2)
   10efc:	96be                	add	a3,a3,a5
   10efe:	0016e793          	ori	a5,a3,1
   10f02:	ee0c                	sd	a1,24(a2)
   10f04:	e990                	sd	a2,16(a1)
   10f06:	e71c                	sd	a5,8(a4)
   10f08:	9736                	add	a4,a4,a3
   10f0a:	e314                	sd	a3,0(a4)
   10f0c:	bf81                	j	10e5c <_free_r+0xb4>
   10f0e:	96be                	add	a3,a3,a5
   10f10:	00089a63          	bnez	a7,10f24 <_free_r+0x17c>
   10f14:	ff043503          	ld	a0,-16(s0)
   10f18:	8f09                	sub	a4,a4,a0
   10f1a:	6f1c                	ld	a5,24(a4)
   10f1c:	6b10                	ld	a2,16(a4)
   10f1e:	96aa                	add	a3,a3,a0
   10f20:	ee1c                	sd	a5,24(a2)
   10f22:	eb90                	sd	a2,16(a5)
   10f24:	0016e613          	ori	a2,a3,1
   10f28:	2301b783          	ld	a5,560(gp) # 1bcc0 <__malloc_trim_threshold>
   10f2c:	e710                	sd	a2,8(a4)
   10f2e:	e998                	sd	a4,16(a1)
   10f30:	f2f6e6e3          	bltu	a3,a5,10e5c <_free_r+0xb4>
   10f34:	2601b583          	ld	a1,608(gp) # 1bcf0 <__malloc_top_pad>
   10f38:	8526                	mv	a0,s1
   10f3a:	da3ff0ef          	jal	10cdc <_malloc_trim_r>
   10f3e:	bf39                	j	10e5c <_free_r+0xb4>
   10f40:	97b6                	add	a5,a5,a3
   10f42:	bf15                	j	10e76 <_free_r+0xce>
   10f44:	4651                	li	a2,20
   10f46:	02d67563          	bgeu	a2,a3,10f70 <_free_r+0x1c8>
   10f4a:	05400613          	li	a2,84
   10f4e:	04d66d63          	bltu	a2,a3,10fa8 <_free_r+0x200>
   10f52:	00c7d693          	srli	a3,a5,0xc
   10f56:	06f6851b          	addiw	a0,a3,111
   10f5a:	0015151b          	slliw	a0,a0,0x1
   10f5e:	050e                	slli	a0,a0,0x3
   10f60:	06e6861b          	addiw	a2,a3,110
   10f64:	b785                	j	10ec4 <_free_r+0x11c>
   10f66:	0017e693          	ori	a3,a5,1
   10f6a:	e714                	sd	a3,8(a4)
   10f6c:	e21c                	sd	a5,0(a2)
   10f6e:	b5fd                	j	10e5c <_free_r+0xb4>
   10f70:	05c6851b          	addiw	a0,a3,92
   10f74:	0015151b          	slliw	a0,a0,0x1
   10f78:	050e                	slli	a0,a0,0x3
   10f7a:	05b6861b          	addiw	a2,a3,91
   10f7e:	b799                	j	10ec4 <_free_r+0x11c>
   10f80:	f598                	sd	a4,40(a1)
   10f82:	f198                	sd	a4,32(a1)
   10f84:	ef08                	sd	a0,24(a4)
   10f86:	eb08                	sd	a0,16(a4)
   10f88:	01173423          	sd	a7,8(a4)
   10f8c:	00f83023          	sd	a5,0(a6)
   10f90:	b5f1                	j	10e5c <_free_r+0xb4>
   10f92:	0085b803          	ld	a6,8(a1)
   10f96:	4026561b          	sraiw	a2,a2,0x2
   10f9a:	4785                	li	a5,1
   10f9c:	00c797b3          	sll	a5,a5,a2
   10fa0:	0107e7b3          	or	a5,a5,a6
   10fa4:	e59c                	sd	a5,8(a1)
   10fa6:	bf2d                	j	10ee0 <_free_r+0x138>
   10fa8:	15400613          	li	a2,340
   10fac:	00d66c63          	bltu	a2,a3,10fc4 <_free_r+0x21c>
   10fb0:	00f7d693          	srli	a3,a5,0xf
   10fb4:	0786851b          	addiw	a0,a3,120
   10fb8:	0015151b          	slliw	a0,a0,0x1
   10fbc:	050e                	slli	a0,a0,0x3
   10fbe:	0776861b          	addiw	a2,a3,119
   10fc2:	b709                	j	10ec4 <_free_r+0x11c>
   10fc4:	55400613          	li	a2,1364
   10fc8:	00d66c63          	bltu	a2,a3,10fe0 <_free_r+0x238>
   10fcc:	0127d693          	srli	a3,a5,0x12
   10fd0:	07d6851b          	addiw	a0,a3,125
   10fd4:	0015151b          	slliw	a0,a0,0x1
   10fd8:	050e                	slli	a0,a0,0x3
   10fda:	07c6861b          	addiw	a2,a3,124
   10fde:	b5dd                	j	10ec4 <_free_r+0x11c>
   10fe0:	7f000513          	li	a0,2032
   10fe4:	07e00613          	li	a2,126
   10fe8:	bdf1                	j	10ec4 <_free_r+0x11c>

0000000000010fea <_malloc_r>:
   10fea:	711d                	addi	sp,sp,-96
   10fec:	e4a6                	sd	s1,72(sp)
   10fee:	e0ca                	sd	s2,64(sp)
   10ff0:	ec86                	sd	ra,88(sp)
   10ff2:	e8a2                	sd	s0,80(sp)
   10ff4:	fc4e                	sd	s3,56(sp)
   10ff6:	01758493          	addi	s1,a1,23
   10ffa:	02e00793          	li	a5,46
   10ffe:	892a                	mv	s2,a0
   11000:	0497eb63          	bltu	a5,s1,11056 <_malloc_r+0x6c>
   11004:	02000493          	li	s1,32
   11008:	18b4e863          	bltu	s1,a1,11198 <_malloc_r+0x1ae>
   1100c:	60a000ef          	jal	11616 <__malloc_lock>
   11010:	05000793          	li	a5,80
   11014:	4591                	li	a1,4
   11016:	69ed                	lui	s3,0x1b
   11018:	27898993          	addi	s3,s3,632 # 1b278 <__malloc_av_>
   1101c:	97ce                	add	a5,a5,s3
   1101e:	6780                	ld	s0,8(a5)
   11020:	ff078713          	addi	a4,a5,-16
   11024:	32e40963          	beq	s0,a4,11356 <_malloc_r+0x36c>
   11028:	641c                	ld	a5,8(s0)
   1102a:	6c14                	ld	a3,24(s0)
   1102c:	6810                	ld	a2,16(s0)
   1102e:	9bf1                	andi	a5,a5,-4
   11030:	97a2                	add	a5,a5,s0
   11032:	6798                	ld	a4,8(a5)
   11034:	ee14                	sd	a3,24(a2)
   11036:	ea90                	sd	a2,16(a3)
   11038:	00176713          	ori	a4,a4,1
   1103c:	854a                	mv	a0,s2
   1103e:	e798                	sd	a4,8(a5)
   11040:	5d8000ef          	jal	11618 <__malloc_unlock>
   11044:	60e6                	ld	ra,88(sp)
   11046:	01040513          	addi	a0,s0,16
   1104a:	6446                	ld	s0,80(sp)
   1104c:	64a6                	ld	s1,72(sp)
   1104e:	6906                	ld	s2,64(sp)
   11050:	79e2                	ld	s3,56(sp)
   11052:	6125                	addi	sp,sp,96
   11054:	8082                	ret
   11056:	800007b7          	lui	a5,0x80000
   1105a:	98c1                	andi	s1,s1,-16
   1105c:	fff7c793          	not	a5,a5
   11060:	1297ec63          	bltu	a5,s1,11198 <_malloc_r+0x1ae>
   11064:	12b4ea63          	bltu	s1,a1,11198 <_malloc_r+0x1ae>
   11068:	5ae000ef          	jal	11616 <__malloc_lock>
   1106c:	1f700793          	li	a5,503
   11070:	3c97fe63          	bgeu	a5,s1,1144c <_malloc_r+0x462>
   11074:	0094d793          	srli	a5,s1,0x9
   11078:	12078b63          	beqz	a5,111ae <_malloc_r+0x1c4>
   1107c:	4711                	li	a4,4
   1107e:	32f76363          	bltu	a4,a5,113a4 <_malloc_r+0x3ba>
   11082:	0064d793          	srli	a5,s1,0x6
   11086:	0397859b          	addiw	a1,a5,57 # ffffffff80000039 <__BSS_END__+0xffffffff7ffe3da9>
   1108a:	0015961b          	slliw	a2,a1,0x1
   1108e:	0387881b          	addiw	a6,a5,56
   11092:	060e                	slli	a2,a2,0x3
   11094:	69ed                	lui	s3,0x1b
   11096:	27898993          	addi	s3,s3,632 # 1b278 <__malloc_av_>
   1109a:	964e                	add	a2,a2,s3
   1109c:	6600                	ld	s0,8(a2)
   1109e:	1641                	addi	a2,a2,-16 # 1ff0 <exit-0xe130>
   110a0:	02860163          	beq	a2,s0,110c2 <_malloc_r+0xd8>
   110a4:	457d                	li	a0,31
   110a6:	a039                	j	110b4 <_malloc_r+0xca>
   110a8:	6c14                	ld	a3,24(s0)
   110aa:	28075263          	bgez	a4,1132e <_malloc_r+0x344>
   110ae:	00d60a63          	beq	a2,a3,110c2 <_malloc_r+0xd8>
   110b2:	8436                	mv	s0,a3
   110b4:	641c                	ld	a5,8(s0)
   110b6:	9bf1                	andi	a5,a5,-4
   110b8:	40978733          	sub	a4,a5,s1
   110bc:	fee556e3          	bge	a0,a4,110a8 <_malloc_r+0xbe>
   110c0:	85c2                	mv	a1,a6
   110c2:	0209b403          	ld	s0,32(s3)
   110c6:	686d                	lui	a6,0x1b
   110c8:	28880813          	addi	a6,a6,648 # 1b288 <__malloc_av_+0x10>
   110cc:	25040e63          	beq	s0,a6,11328 <_malloc_r+0x33e>
   110d0:	641c                	ld	a5,8(s0)
   110d2:	46fd                	li	a3,31
   110d4:	9bf1                	andi	a5,a5,-4
   110d6:	40978733          	sub	a4,a5,s1
   110da:	34e6c263          	blt	a3,a4,1141e <_malloc_r+0x434>
   110de:	0309b423          	sd	a6,40(s3)
   110e2:	0309b023          	sd	a6,32(s3)
   110e6:	32075163          	bgez	a4,11408 <_malloc_r+0x41e>
   110ea:	1ff00713          	li	a4,511
   110ee:	0089b503          	ld	a0,8(s3)
   110f2:	26f76763          	bltu	a4,a5,11360 <_malloc_r+0x376>
   110f6:	838d                	srli	a5,a5,0x3
   110f8:	2781                	sext.w	a5,a5
   110fa:	0017871b          	addiw	a4,a5,1
   110fe:	0017171b          	slliw	a4,a4,0x1
   11102:	070e                	slli	a4,a4,0x3
   11104:	974e                	add	a4,a4,s3
   11106:	6310                	ld	a2,0(a4)
   11108:	4027d79b          	sraiw	a5,a5,0x2
   1110c:	4685                	li	a3,1
   1110e:	00f697b3          	sll	a5,a3,a5
   11112:	8d5d                	or	a0,a0,a5
   11114:	ff070793          	addi	a5,a4,-16
   11118:	e810                	sd	a2,16(s0)
   1111a:	ec1c                	sd	a5,24(s0)
   1111c:	00a9b423          	sd	a0,8(s3)
   11120:	e300                	sd	s0,0(a4)
   11122:	ee00                	sd	s0,24(a2)
   11124:	4025d79b          	sraiw	a5,a1,0x2
   11128:	4605                	li	a2,1
   1112a:	00f61633          	sll	a2,a2,a5
   1112e:	08c56763          	bltu	a0,a2,111bc <_malloc_r+0x1d2>
   11132:	00a677b3          	and	a5,a2,a0
   11136:	ef81                	bnez	a5,1114e <_malloc_r+0x164>
   11138:	0606                	slli	a2,a2,0x1
   1113a:	99f1                	andi	a1,a1,-4
   1113c:	00a677b3          	and	a5,a2,a0
   11140:	2591                	addiw	a1,a1,4
   11142:	e791                	bnez	a5,1114e <_malloc_r+0x164>
   11144:	0606                	slli	a2,a2,0x1
   11146:	00a677b3          	and	a5,a2,a0
   1114a:	2591                	addiw	a1,a1,4
   1114c:	dfe5                	beqz	a5,11144 <_malloc_r+0x15a>
   1114e:	48fd                	li	a7,31
   11150:	0015831b          	addiw	t1,a1,1
   11154:	0013131b          	slliw	t1,t1,0x1
   11158:	030e                	slli	t1,t1,0x3
   1115a:	1341                	addi	t1,t1,-16
   1115c:	934e                	add	t1,t1,s3
   1115e:	851a                	mv	a0,t1
   11160:	6d1c                	ld	a5,24(a0)
   11162:	8e2e                	mv	t3,a1
   11164:	26f50163          	beq	a0,a5,113c6 <_malloc_r+0x3dc>
   11168:	6798                	ld	a4,8(a5)
   1116a:	843e                	mv	s0,a5
   1116c:	6f9c                	ld	a5,24(a5)
   1116e:	9b71                	andi	a4,a4,-4
   11170:	409706b3          	sub	a3,a4,s1
   11174:	26d8c063          	blt	a7,a3,113d4 <_malloc_r+0x3ea>
   11178:	fe06c6e3          	bltz	a3,11164 <_malloc_r+0x17a>
   1117c:	9722                	add	a4,a4,s0
   1117e:	6714                	ld	a3,8(a4)
   11180:	6810                	ld	a2,16(s0)
   11182:	854a                	mv	a0,s2
   11184:	0016e693          	ori	a3,a3,1
   11188:	e714                	sd	a3,8(a4)
   1118a:	ee1c                	sd	a5,24(a2)
   1118c:	eb90                	sd	a2,16(a5)
   1118e:	48a000ef          	jal	11618 <__malloc_unlock>
   11192:	01040513          	addi	a0,s0,16
   11196:	a029                	j	111a0 <_malloc_r+0x1b6>
   11198:	47b1                	li	a5,12
   1119a:	00f92023          	sw	a5,0(s2)
   1119e:	4501                	li	a0,0
   111a0:	60e6                	ld	ra,88(sp)
   111a2:	6446                	ld	s0,80(sp)
   111a4:	64a6                	ld	s1,72(sp)
   111a6:	6906                	ld	s2,64(sp)
   111a8:	79e2                	ld	s3,56(sp)
   111aa:	6125                	addi	sp,sp,96
   111ac:	8082                	ret
   111ae:	40000613          	li	a2,1024
   111b2:	04000593          	li	a1,64
   111b6:	03f00813          	li	a6,63
   111ba:	bde9                	j	11094 <_malloc_r+0xaa>
   111bc:	0109b403          	ld	s0,16(s3)
   111c0:	f456                	sd	s5,40(sp)
   111c2:	641c                	ld	a5,8(s0)
   111c4:	ffc7fa93          	andi	s5,a5,-4
   111c8:	009ae763          	bltu	s5,s1,111d6 <_malloc_r+0x1ec>
   111cc:	409a8733          	sub	a4,s5,s1
   111d0:	47fd                	li	a5,31
   111d2:	12e7c563          	blt	a5,a4,112fc <_malloc_r+0x312>
   111d6:	e466                	sd	s9,8(sp)
   111d8:	f852                	sd	s4,48(sp)
   111da:	2281b703          	ld	a4,552(gp) # 1bcb8 <__malloc_sbrk_base>
   111de:	2601ba03          	ld	s4,608(gp) # 1bcf0 <__malloc_top_pad>
   111e2:	ec5e                	sd	s7,24(sp)
   111e4:	f05a                	sd	s6,32(sp)
   111e6:	57fd                	li	a5,-1
   111e8:	9a26                	add	s4,s4,s1
   111ea:	01540bb3          	add	s7,s0,s5
   111ee:	2ef70363          	beq	a4,a5,114d4 <_malloc_r+0x4ea>
   111f2:	6785                	lui	a5,0x1
   111f4:	07fd                	addi	a5,a5,31 # 101f <exit-0xf101>
   111f6:	9a3e                	add	s4,s4,a5
   111f8:	77fd                	lui	a5,0xfffff
   111fa:	00fa7a33          	and	s4,s4,a5
   111fe:	85d2                	mv	a1,s4
   11200:	854a                	mv	a0,s2
   11202:	022030ef          	jal	14224 <_sbrk_r>
   11206:	57fd                	li	a5,-1
   11208:	8b2a                	mv	s6,a0
   1120a:	36f50363          	beq	a0,a5,11570 <_malloc_r+0x586>
   1120e:	e862                	sd	s8,16(sp)
   11210:	0d756463          	bltu	a0,s7,112d8 <_malloc_r+0x2ee>
   11214:	4c018c13          	addi	s8,gp,1216 # 1bf50 <__malloc_current_mallinfo>
   11218:	000c2703          	lw	a4,0(s8)
   1121c:	0147073b          	addw	a4,a4,s4
   11220:	00ec2023          	sw	a4,0(s8)
   11224:	86ba                	mv	a3,a4
   11226:	34ab8963          	beq	s7,a0,11578 <_malloc_r+0x58e>
   1122a:	2281b703          	ld	a4,552(gp) # 1bcb8 <__malloc_sbrk_base>
   1122e:	57fd                	li	a5,-1
   11230:	36f70163          	beq	a4,a5,11592 <_malloc_r+0x5a8>
   11234:	417b07b3          	sub	a5,s6,s7
   11238:	9fb5                	addw	a5,a5,a3
   1123a:	00fc2023          	sw	a5,0(s8)
   1123e:	00fb7c93          	andi	s9,s6,15
   11242:	2a0c8563          	beqz	s9,114ec <_malloc_r+0x502>
   11246:	419b0b33          	sub	s6,s6,s9
   1124a:	6685                	lui	a3,0x1
   1124c:	0b41                	addi	s6,s6,16
   1124e:	06c1                	addi	a3,a3,16 # 1010 <exit-0xf110>
   11250:	9a5a                	add	s4,s4,s6
   11252:	419686b3          	sub	a3,a3,s9
   11256:	414686b3          	sub	a3,a3,s4
   1125a:	16d2                	slli	a3,a3,0x34
   1125c:	0346db93          	srli	s7,a3,0x34
   11260:	85de                	mv	a1,s7
   11262:	854a                	mv	a0,s2
   11264:	7c1020ef          	jal	14224 <_sbrk_r>
   11268:	57fd                	li	a5,-1
   1126a:	36f50363          	beq	a0,a5,115d0 <_malloc_r+0x5e6>
   1126e:	41650533          	sub	a0,a0,s6
   11272:	01750a33          	add	s4,a0,s7
   11276:	000b869b          	sext.w	a3,s7
   1127a:	000c2703          	lw	a4,0(s8)
   1127e:	0169b823          	sd	s6,16(s3)
   11282:	001a6793          	ori	a5,s4,1
   11286:	9f35                	addw	a4,a4,a3
   11288:	00fb3423          	sd	a5,8(s6)
   1128c:	00ec2023          	sw	a4,0(s8)
   11290:	03340563          	beq	s0,s3,112ba <_malloc_r+0x2d0>
   11294:	467d                	li	a2,31
   11296:	27567b63          	bgeu	a2,s5,1150c <_malloc_r+0x522>
   1129a:	6414                	ld	a3,8(s0)
   1129c:	fe8a8793          	addi	a5,s5,-24
   112a0:	9bc1                	andi	a5,a5,-16
   112a2:	8a85                	andi	a3,a3,1
   112a4:	8edd                	or	a3,a3,a5
   112a6:	e414                	sd	a3,8(s0)
   112a8:	45a5                	li	a1,9
   112aa:	00f406b3          	add	a3,s0,a5
   112ae:	e68c                	sd	a1,8(a3)
   112b0:	ea8c                	sd	a1,16(a3)
   112b2:	20f66763          	bltu	a2,a5,114c0 <_malloc_r+0x4d6>
   112b6:	008b3783          	ld	a5,8(s6)
   112ba:	2581b603          	ld	a2,600(gp) # 1bce8 <__malloc_max_sbrked_mem>
   112be:	00e67463          	bgeu	a2,a4,112c6 <_malloc_r+0x2dc>
   112c2:	24e1bc23          	sd	a4,600(gp) # 1bce8 <__malloc_max_sbrked_mem>
   112c6:	2501b603          	ld	a2,592(gp) # 1bce0 <__malloc_max_total_mem>
   112ca:	00e67463          	bgeu	a2,a4,112d2 <_malloc_r+0x2e8>
   112ce:	24e1b823          	sd	a4,592(gp) # 1bce0 <__malloc_max_total_mem>
   112d2:	6c42                	ld	s8,16(sp)
   112d4:	845a                	mv	s0,s6
   112d6:	a039                	j	112e4 <_malloc_r+0x2fa>
   112d8:	29340363          	beq	s0,s3,1155e <_malloc_r+0x574>
   112dc:	0109b403          	ld	s0,16(s3)
   112e0:	6c42                	ld	s8,16(sp)
   112e2:	641c                	ld	a5,8(s0)
   112e4:	9bf1                	andi	a5,a5,-4
   112e6:	40978733          	sub	a4,a5,s1
   112ea:	2297e563          	bltu	a5,s1,11514 <_malloc_r+0x52a>
   112ee:	47fd                	li	a5,31
   112f0:	22e7d263          	bge	a5,a4,11514 <_malloc_r+0x52a>
   112f4:	7a42                	ld	s4,48(sp)
   112f6:	7b02                	ld	s6,32(sp)
   112f8:	6be2                	ld	s7,24(sp)
   112fa:	6ca2                	ld	s9,8(sp)
   112fc:	0014e793          	ori	a5,s1,1
   11300:	e41c                	sd	a5,8(s0)
   11302:	94a2                	add	s1,s1,s0
   11304:	0099b823          	sd	s1,16(s3)
   11308:	00176713          	ori	a4,a4,1
   1130c:	854a                	mv	a0,s2
   1130e:	e498                	sd	a4,8(s1)
   11310:	308000ef          	jal	11618 <__malloc_unlock>
   11314:	60e6                	ld	ra,88(sp)
   11316:	01040513          	addi	a0,s0,16
   1131a:	6446                	ld	s0,80(sp)
   1131c:	7aa2                	ld	s5,40(sp)
   1131e:	64a6                	ld	s1,72(sp)
   11320:	6906                	ld	s2,64(sp)
   11322:	79e2                	ld	s3,56(sp)
   11324:	6125                	addi	sp,sp,96
   11326:	8082                	ret
   11328:	0089b503          	ld	a0,8(s3)
   1132c:	bbe5                	j	11124 <_malloc_r+0x13a>
   1132e:	6810                	ld	a2,16(s0)
   11330:	97a2                	add	a5,a5,s0
   11332:	6798                	ld	a4,8(a5)
   11334:	ee14                	sd	a3,24(a2)
   11336:	ea90                	sd	a2,16(a3)
   11338:	00176713          	ori	a4,a4,1
   1133c:	854a                	mv	a0,s2
   1133e:	e798                	sd	a4,8(a5)
   11340:	2d8000ef          	jal	11618 <__malloc_unlock>
   11344:	60e6                	ld	ra,88(sp)
   11346:	01040513          	addi	a0,s0,16
   1134a:	6446                	ld	s0,80(sp)
   1134c:	64a6                	ld	s1,72(sp)
   1134e:	6906                	ld	s2,64(sp)
   11350:	79e2                	ld	s3,56(sp)
   11352:	6125                	addi	sp,sp,96
   11354:	8082                	ret
   11356:	6f80                	ld	s0,24(a5)
   11358:	2589                	addiw	a1,a1,2
   1135a:	d68784e3          	beq	a5,s0,110c2 <_malloc_r+0xd8>
   1135e:	b1e9                	j	11028 <_malloc_r+0x3e>
   11360:	0097d713          	srli	a4,a5,0x9
   11364:	4691                	li	a3,4
   11366:	0ee6fc63          	bgeu	a3,a4,1145e <_malloc_r+0x474>
   1136a:	46d1                	li	a3,20
   1136c:	1ae6ed63          	bltu	a3,a4,11526 <_malloc_r+0x53c>
   11370:	05c7061b          	addiw	a2,a4,92
   11374:	0016161b          	slliw	a2,a2,0x1
   11378:	060e                	slli	a2,a2,0x3
   1137a:	05b7069b          	addiw	a3,a4,91
   1137e:	964e                	add	a2,a2,s3
   11380:	6218                	ld	a4,0(a2)
   11382:	1641                	addi	a2,a2,-16
   11384:	00e61663          	bne	a2,a4,11390 <_malloc_r+0x3a6>
   11388:	aa89                	j	114da <_malloc_r+0x4f0>
   1138a:	6b18                	ld	a4,16(a4)
   1138c:	00e60663          	beq	a2,a4,11398 <_malloc_r+0x3ae>
   11390:	6714                	ld	a3,8(a4)
   11392:	9af1                	andi	a3,a3,-4
   11394:	fed7ebe3          	bltu	a5,a3,1138a <_malloc_r+0x3a0>
   11398:	6f10                	ld	a2,24(a4)
   1139a:	ec10                	sd	a2,24(s0)
   1139c:	e818                	sd	a4,16(s0)
   1139e:	ea00                	sd	s0,16(a2)
   113a0:	ef00                	sd	s0,24(a4)
   113a2:	b349                	j	11124 <_malloc_r+0x13a>
   113a4:	4751                	li	a4,20
   113a6:	0cf77663          	bgeu	a4,a5,11472 <_malloc_r+0x488>
   113aa:	05400713          	li	a4,84
   113ae:	18f76a63          	bltu	a4,a5,11542 <_malloc_r+0x558>
   113b2:	00c4d793          	srli	a5,s1,0xc
   113b6:	06f7859b          	addiw	a1,a5,111 # fffffffffffff06f <__BSS_END__+0xfffffffffffe2ddf>
   113ba:	0015961b          	slliw	a2,a1,0x1
   113be:	06e7881b          	addiw	a6,a5,110
   113c2:	060e                	slli	a2,a2,0x3
   113c4:	b9c1                	j	11094 <_malloc_r+0xaa>
   113c6:	2e05                	addiw	t3,t3,1
   113c8:	003e7793          	andi	a5,t3,3
   113cc:	0541                	addi	a0,a0,16
   113ce:	cfdd                	beqz	a5,1148c <_malloc_r+0x4a2>
   113d0:	6d1c                	ld	a5,24(a0)
   113d2:	bb49                	j	11164 <_malloc_r+0x17a>
   113d4:	6810                	ld	a2,16(s0)
   113d6:	0014e593          	ori	a1,s1,1
   113da:	e40c                	sd	a1,8(s0)
   113dc:	ee1c                	sd	a5,24(a2)
   113de:	eb90                	sd	a2,16(a5)
   113e0:	94a2                	add	s1,s1,s0
   113e2:	0299b423          	sd	s1,40(s3)
   113e6:	0299b023          	sd	s1,32(s3)
   113ea:	0016e793          	ori	a5,a3,1
   113ee:	9722                	add	a4,a4,s0
   113f0:	0104bc23          	sd	a6,24(s1)
   113f4:	0104b823          	sd	a6,16(s1)
   113f8:	e49c                	sd	a5,8(s1)
   113fa:	854a                	mv	a0,s2
   113fc:	e314                	sd	a3,0(a4)
   113fe:	21a000ef          	jal	11618 <__malloc_unlock>
   11402:	01040513          	addi	a0,s0,16
   11406:	bb69                	j	111a0 <_malloc_r+0x1b6>
   11408:	97a2                	add	a5,a5,s0
   1140a:	6798                	ld	a4,8(a5)
   1140c:	854a                	mv	a0,s2
   1140e:	00176713          	ori	a4,a4,1
   11412:	e798                	sd	a4,8(a5)
   11414:	204000ef          	jal	11618 <__malloc_unlock>
   11418:	01040513          	addi	a0,s0,16
   1141c:	b351                	j	111a0 <_malloc_r+0x1b6>
   1141e:	0014e693          	ori	a3,s1,1
   11422:	e414                	sd	a3,8(s0)
   11424:	94a2                	add	s1,s1,s0
   11426:	0299b423          	sd	s1,40(s3)
   1142a:	0299b023          	sd	s1,32(s3)
   1142e:	00176693          	ori	a3,a4,1
   11432:	97a2                	add	a5,a5,s0
   11434:	0104bc23          	sd	a6,24(s1)
   11438:	0104b823          	sd	a6,16(s1)
   1143c:	e494                	sd	a3,8(s1)
   1143e:	854a                	mv	a0,s2
   11440:	e398                	sd	a4,0(a5)
   11442:	1d6000ef          	jal	11618 <__malloc_unlock>
   11446:	01040513          	addi	a0,s0,16
   1144a:	bb99                	j	111a0 <_malloc_r+0x1b6>
   1144c:	0034d593          	srli	a1,s1,0x3
   11450:	0015879b          	addiw	a5,a1,1
   11454:	0017979b          	slliw	a5,a5,0x1
   11458:	078e                	slli	a5,a5,0x3
   1145a:	2581                	sext.w	a1,a1
   1145c:	be6d                	j	11016 <_malloc_r+0x2c>
   1145e:	0067d713          	srli	a4,a5,0x6
   11462:	0397061b          	addiw	a2,a4,57
   11466:	0016161b          	slliw	a2,a2,0x1
   1146a:	060e                	slli	a2,a2,0x3
   1146c:	0387069b          	addiw	a3,a4,56
   11470:	b739                	j	1137e <_malloc_r+0x394>
   11472:	05c7859b          	addiw	a1,a5,92
   11476:	0015961b          	slliw	a2,a1,0x1
   1147a:	05b7881b          	addiw	a6,a5,91
   1147e:	060e                	slli	a2,a2,0x3
   11480:	b911                	j	11094 <_malloc_r+0xaa>
   11482:	01033783          	ld	a5,16(t1)
   11486:	35fd                	addiw	a1,a1,-1
   11488:	18679463          	bne	a5,t1,11610 <_malloc_r+0x626>
   1148c:	0035f793          	andi	a5,a1,3
   11490:	1341                	addi	t1,t1,-16
   11492:	fbe5                	bnez	a5,11482 <_malloc_r+0x498>
   11494:	0089b703          	ld	a4,8(s3)
   11498:	fff64793          	not	a5,a2
   1149c:	8ff9                	and	a5,a5,a4
   1149e:	00f9b423          	sd	a5,8(s3)
   114a2:	0606                	slli	a2,a2,0x1
   114a4:	d0c7ece3          	bltu	a5,a2,111bc <_malloc_r+0x1d2>
   114a8:	d0060ae3          	beqz	a2,111bc <_malloc_r+0x1d2>
   114ac:	00f67733          	and	a4,a2,a5
   114b0:	e711                	bnez	a4,114bc <_malloc_r+0x4d2>
   114b2:	0606                	slli	a2,a2,0x1
   114b4:	00f67733          	and	a4,a2,a5
   114b8:	2e11                	addiw	t3,t3,4
   114ba:	df65                	beqz	a4,114b2 <_malloc_r+0x4c8>
   114bc:	85f2                	mv	a1,t3
   114be:	b949                	j	11150 <_malloc_r+0x166>
   114c0:	01040593          	addi	a1,s0,16
   114c4:	854a                	mv	a0,s2
   114c6:	8e3ff0ef          	jal	10da8 <_free_r>
   114ca:	000c2703          	lw	a4,0(s8)
   114ce:	0109bb03          	ld	s6,16(s3)
   114d2:	b3d5                	j	112b6 <_malloc_r+0x2cc>
   114d4:	020a0a13          	addi	s4,s4,32
   114d8:	b31d                	j	111fe <_malloc_r+0x214>
   114da:	4026d69b          	sraiw	a3,a3,0x2
   114de:	4785                	li	a5,1
   114e0:	00d797b3          	sll	a5,a5,a3
   114e4:	8d5d                	or	a0,a0,a5
   114e6:	00a9b423          	sd	a0,8(s3)
   114ea:	bd45                	j	1139a <_malloc_r+0x3b0>
   114ec:	014b0bb3          	add	s7,s6,s4
   114f0:	41700bb3          	neg	s7,s7
   114f4:	1bd2                	slli	s7,s7,0x34
   114f6:	034bdb93          	srli	s7,s7,0x34
   114fa:	85de                	mv	a1,s7
   114fc:	854a                	mv	a0,s2
   114fe:	527020ef          	jal	14224 <_sbrk_r>
   11502:	57fd                	li	a5,-1
   11504:	4681                	li	a3,0
   11506:	d6f514e3          	bne	a0,a5,1126e <_malloc_r+0x284>
   1150a:	bb85                	j	1127a <_malloc_r+0x290>
   1150c:	6c42                	ld	s8,16(sp)
   1150e:	4785                	li	a5,1
   11510:	00fb3423          	sd	a5,8(s6)
   11514:	854a                	mv	a0,s2
   11516:	102000ef          	jal	11618 <__malloc_unlock>
   1151a:	7a42                	ld	s4,48(sp)
   1151c:	7aa2                	ld	s5,40(sp)
   1151e:	7b02                	ld	s6,32(sp)
   11520:	6be2                	ld	s7,24(sp)
   11522:	6ca2                	ld	s9,8(sp)
   11524:	b9ad                	j	1119e <_malloc_r+0x1b4>
   11526:	05400693          	li	a3,84
   1152a:	06e6e763          	bltu	a3,a4,11598 <_malloc_r+0x5ae>
   1152e:	00c7d713          	srli	a4,a5,0xc
   11532:	06f7061b          	addiw	a2,a4,111
   11536:	0016161b          	slliw	a2,a2,0x1
   1153a:	060e                	slli	a2,a2,0x3
   1153c:	06e7069b          	addiw	a3,a4,110
   11540:	bd3d                	j	1137e <_malloc_r+0x394>
   11542:	15400713          	li	a4,340
   11546:	06f76763          	bltu	a4,a5,115b4 <_malloc_r+0x5ca>
   1154a:	00f4d793          	srli	a5,s1,0xf
   1154e:	0787859b          	addiw	a1,a5,120
   11552:	0015961b          	slliw	a2,a1,0x1
   11556:	0777881b          	addiw	a6,a5,119
   1155a:	060e                	slli	a2,a2,0x3
   1155c:	be25                	j	11094 <_malloc_r+0xaa>
   1155e:	4c018c13          	addi	s8,gp,1216 # 1bf50 <__malloc_current_mallinfo>
   11562:	000c2683          	lw	a3,0(s8)
   11566:	014686bb          	addw	a3,a3,s4
   1156a:	00dc2023          	sw	a3,0(s8)
   1156e:	b975                	j	1122a <_malloc_r+0x240>
   11570:	0109b403          	ld	s0,16(s3)
   11574:	641c                	ld	a5,8(s0)
   11576:	b3bd                	j	112e4 <_malloc_r+0x2fa>
   11578:	03451793          	slli	a5,a0,0x34
   1157c:	ca0797e3          	bnez	a5,1122a <_malloc_r+0x240>
   11580:	0109bb03          	ld	s6,16(s3)
   11584:	014a87b3          	add	a5,s5,s4
   11588:	0017e793          	ori	a5,a5,1
   1158c:	00fb3423          	sd	a5,8(s6)
   11590:	b32d                	j	112ba <_malloc_r+0x2d0>
   11592:	2361b423          	sd	s6,552(gp) # 1bcb8 <__malloc_sbrk_base>
   11596:	b165                	j	1123e <_malloc_r+0x254>
   11598:	15400693          	li	a3,340
   1159c:	04e6e063          	bltu	a3,a4,115dc <_malloc_r+0x5f2>
   115a0:	00f7d713          	srli	a4,a5,0xf
   115a4:	0787061b          	addiw	a2,a4,120
   115a8:	0016161b          	slliw	a2,a2,0x1
   115ac:	060e                	slli	a2,a2,0x3
   115ae:	0777069b          	addiw	a3,a4,119
   115b2:	b3f1                	j	1137e <_malloc_r+0x394>
   115b4:	55400713          	li	a4,1364
   115b8:	04f76063          	bltu	a4,a5,115f8 <_malloc_r+0x60e>
   115bc:	0124d793          	srli	a5,s1,0x12
   115c0:	07d7859b          	addiw	a1,a5,125
   115c4:	0015961b          	slliw	a2,a1,0x1
   115c8:	07c7881b          	addiw	a6,a5,124
   115cc:	060e                	slli	a2,a2,0x3
   115ce:	b4d9                	j	11094 <_malloc_r+0xaa>
   115d0:	1cc1                	addi	s9,s9,-16
   115d2:	9a66                	add	s4,s4,s9
   115d4:	416a0a33          	sub	s4,s4,s6
   115d8:	4681                	li	a3,0
   115da:	b145                	j	1127a <_malloc_r+0x290>
   115dc:	55400693          	li	a3,1364
   115e0:	02e6e363          	bltu	a3,a4,11606 <_malloc_r+0x61c>
   115e4:	0127d713          	srli	a4,a5,0x12
   115e8:	07d7061b          	addiw	a2,a4,125
   115ec:	0016161b          	slliw	a2,a2,0x1
   115f0:	060e                	slli	a2,a2,0x3
   115f2:	07c7069b          	addiw	a3,a4,124
   115f6:	b361                	j	1137e <_malloc_r+0x394>
   115f8:	7f000613          	li	a2,2032
   115fc:	07f00593          	li	a1,127
   11600:	07e00813          	li	a6,126
   11604:	bc41                	j	11094 <_malloc_r+0xaa>
   11606:	7f000613          	li	a2,2032
   1160a:	07e00693          	li	a3,126
   1160e:	bb85                	j	1137e <_malloc_r+0x394>
   11610:	0089b783          	ld	a5,8(s3)
   11614:	b579                	j	114a2 <_malloc_r+0x4b8>

0000000000011616 <__malloc_lock>:
   11616:	8082                	ret

0000000000011618 <__malloc_unlock>:
   11618:	8082                	ret

000000000001161a <_vfprintf_r>:
   1161a:	dc010113          	addi	sp,sp,-576
   1161e:	22113c23          	sd	ra,568(sp)
   11622:	22813823          	sd	s0,560(sp)
   11626:	23213023          	sd	s2,544(sp)
   1162a:	21513423          	sd	s5,520(sp)
   1162e:	892e                	mv	s2,a1
   11630:	8ab2                	mv	s5,a2
   11632:	ec36                	sd	a3,24(sp)
   11634:	842a                	mv	s0,a0
   11636:	e02a                	sd	a0,0(sp)
   11638:	3e1020ef          	jal	14218 <_localeconv_r>
   1163c:	611c                	ld	a5,0(a0)
   1163e:	853e                	mv	a0,a5
   11640:	e4be                	sd	a5,72(sp)
   11642:	d26ff0ef          	jal	10b68 <strlen>
   11646:	e0aa                	sd	a0,64(sp)
   11648:	e182                	sd	zero,192(sp)
   1164a:	e582                	sd	zero,200(sp)
   1164c:	c409                	beqz	s0,11656 <_vfprintf_r+0x3c>
   1164e:	6438                	ld	a4,72(s0)
   11650:	e319                	bnez	a4,11656 <_vfprintf_r+0x3c>
   11652:	4ce0106f          	j	12b20 <_vfprintf_r+0x1506>
   11656:	01091703          	lh	a4,16(s2)
   1165a:	0ac92683          	lw	a3,172(s2)
   1165e:	6589                	lui	a1,0x2
   11660:	03271613          	slli	a2,a4,0x32
   11664:	26064e63          	bltz	a2,118e0 <_vfprintf_r+0x2c6>
   11668:	7679                	lui	a2,0xffffe
   1166a:	8f4d                	or	a4,a4,a1
   1166c:	167d                	addi	a2,a2,-1 # ffffffffffffdfff <__BSS_END__+0xfffffffffffe1d6f>
   1166e:	8ef1                	and	a3,a3,a2
   11670:	00e91823          	sh	a4,16(s2)
   11674:	0107171b          	slliw	a4,a4,0x10
   11678:	4107571b          	sraiw	a4,a4,0x10
   1167c:	0ad92623          	sw	a3,172(s2)
   11680:	00877693          	andi	a3,a4,8
   11684:	20068563          	beqz	a3,1188e <_vfprintf_r+0x274>
   11688:	01893683          	ld	a3,24(s2)
   1168c:	20068163          	beqz	a3,1188e <_vfprintf_r+0x274>
   11690:	8b69                	andi	a4,a4,26
   11692:	46a9                	li	a3,10
   11694:	20d70863          	beq	a4,a3,118a4 <_vfprintf_r+0x28a>
   11698:	22913423          	sd	s1,552(sp)
   1169c:	21313c23          	sd	s3,536(sp)
   116a0:	21413823          	sd	s4,528(sp)
   116a4:	efee                	sd	s11,472(sp)
   116a6:	21613023          	sd	s6,512(sp)
   116aa:	ffde                	sd	s7,504(sp)
   116ac:	fbe2                	sd	s8,496(sp)
   116ae:	f7e6                	sd	s9,488(sp)
   116b0:	f3ea                	sd	s10,480(sp)
   116b2:	8dd6                	mv	s11,s5
   116b4:	000dc703          	lbu	a4,0(s11)
   116b8:	15010a13          	addi	s4,sp,336
   116bc:	f182                	sd	zero,224(sp)
   116be:	cd82                	sw	zero,216(sp)
   116c0:	e9d2                	sd	s4,208(sp)
   116c2:	f402                	sd	zero,40(sp)
   116c4:	ec82                	sd	zero,88(sp)
   116c6:	f482                	sd	zero,104(sp)
   116c8:	f882                	sd	zero,112(sp)
   116ca:	f082                	sd	zero,96(sp)
   116cc:	e802                	sd	zero,16(sp)
   116ce:	e44a                	sd	s2,8(sp)
   116d0:	02500413          	li	s0,37
   116d4:	44c1                	li	s1,16
   116d6:	89d2                	mv	s3,s4
   116d8:	18070963          	beqz	a4,1186a <_vfprintf_r+0x250>
   116dc:	8bee                	mv	s7,s11
   116de:	1e870063          	beq	a4,s0,118be <_vfprintf_r+0x2a4>
   116e2:	001bc703          	lbu	a4,1(s7)
   116e6:	0b85                	addi	s7,s7,1
   116e8:	fb7d                	bnez	a4,116de <_vfprintf_r+0xc4>
   116ea:	41bb8abb          	subw	s5,s7,s11
   116ee:	160a8e63          	beqz	s5,1186a <_vfprintf_r+0x250>
   116f2:	768e                	ld	a3,224(sp)
   116f4:	476e                	lw	a4,216(sp)
   116f6:	01b9b023          	sd	s11,0(s3)
   116fa:	96d6                	add	a3,a3,s5
   116fc:	2705                	addiw	a4,a4,1
   116fe:	0159b423          	sd	s5,8(s3)
   11702:	f1b6                	sd	a3,224(sp)
   11704:	cdba                	sw	a4,216(sp)
   11706:	469d                	li	a3,7
   11708:	09c1                	addi	s3,s3,16
   1170a:	1ce6c163          	blt	a3,a4,118cc <_vfprintf_r+0x2b2>
   1170e:	67c2                	ld	a5,16(sp)
   11710:	000bc703          	lbu	a4,0(s7)
   11714:	015787bb          	addw	a5,a5,s5
   11718:	e83e                	sd	a5,16(sp)
   1171a:	14070863          	beqz	a4,1186a <_vfprintf_r+0x250>
   1171e:	537d                	li	t1,-1
   11720:	4f01                	li	t5,0
   11722:	001bce03          	lbu	t3,1(s7)
   11726:	08010fa3          	sb	zero,159(sp)
   1172a:	0b85                	addi	s7,s7,1
   1172c:	4c81                	li	s9,0
   1172e:	05a00a93          	li	s5,90
   11732:	897a                	mv	s2,t5
   11734:	8b1a                	mv	s6,t1
   11736:	0b85                	addi	s7,s7,1
   11738:	2e01                	sext.w	t3,t3
   1173a:	fe0e079b          	addiw	a5,t3,-32
   1173e:	04fae563          	bltu	s5,a5,11788 <_vfprintf_r+0x16e>
   11742:	02079713          	slli	a4,a5,0x20
   11746:	01e75793          	srli	a5,a4,0x1e
   1174a:	6769                	lui	a4,0x1a
   1174c:	a8870713          	addi	a4,a4,-1400 # 19a88 <__clzdi2+0x25c>
   11750:	97ba                	add	a5,a5,a4
   11752:	439c                	lw	a5,0(a5)
   11754:	8782                	jr	a5
   11756:	4c81                	li	s9,0
   11758:	46a5                	li	a3,9
   1175a:	000bc703          	lbu	a4,0(s7)
   1175e:	002c979b          	slliw	a5,s9,0x2
   11762:	01978cbb          	addw	s9,a5,s9
   11766:	fd0e0e1b          	addiw	t3,t3,-48
   1176a:	001c9c9b          	slliw	s9,s9,0x1
   1176e:	fd07079b          	addiw	a5,a4,-48
   11772:	0b85                	addi	s7,s7,1
   11774:	019e0cbb          	addw	s9,t3,s9
   11778:	00070e1b          	sext.w	t3,a4
   1177c:	fcf6ffe3          	bgeu	a3,a5,1175a <_vfprintf_r+0x140>
   11780:	fe0e079b          	addiw	a5,t3,-32
   11784:	fafaffe3          	bgeu	s5,a5,11742 <_vfprintf_r+0x128>
   11788:	8f4a                	mv	t5,s2
   1178a:	0e0e0063          	beqz	t3,1186a <_vfprintf_r+0x250>
   1178e:	4a85                	li	s5,1
   11790:	0fc10423          	sb	t3,232(sp)
   11794:	08010fa3          	sb	zero,159(sp)
   11798:	8d56                	mv	s10,s5
   1179a:	f002                	sd	zero,32(sp)
   1179c:	4301                	li	t1,0
   1179e:	fc02                	sd	zero,56(sp)
   117a0:	f802                	sd	zero,48(sp)
   117a2:	4c01                	li	s8,0
   117a4:	0e810d93          	addi	s11,sp,232
   117a8:	7b0e                	ld	s6,224(sp)
   117aa:	084f7913          	andi	s2,t5,132
   117ae:	865a                	mv	a2,s6
   117b0:	5c090f63          	beqz	s2,11d8e <_vfprintf_r+0x774>
   117b4:	09f14703          	lbu	a4,159(sp)
   117b8:	c331                	beqz	a4,117fc <_vfprintf_r+0x1e2>
   117ba:	45ee                	lw	a1,216(sp)
   117bc:	4701                	li	a4,0
   117be:	4685                	li	a3,1
   117c0:	0b05                	addi	s6,s6,1
   117c2:	2585                	addiw	a1,a1,1 # 2001 <exit-0xe11f>
   117c4:	09f10613          	addi	a2,sp,159
   117c8:	00d9b423          	sd	a3,8(s3)
   117cc:	00c9b023          	sd	a2,0(s3)
   117d0:	f1da                	sd	s6,224(sp)
   117d2:	cdae                	sw	a1,216(sp)
   117d4:	469d                	li	a3,7
   117d6:	09c1                	addi	s3,s3,16
   117d8:	44b6ce63          	blt	a3,a1,11c34 <_vfprintf_r+0x61a>
   117dc:	c305                	beqz	a4,117fc <_vfprintf_r+0x1e2>
   117de:	45ee                	lw	a1,216(sp)
   117e0:	4709                	li	a4,2
   117e2:	0b09                	addi	s6,s6,2
   117e4:	2585                	addiw	a1,a1,1
   117e6:	1114                	addi	a3,sp,160
   117e8:	00e9b423          	sd	a4,8(s3)
   117ec:	00d9b023          	sd	a3,0(s3)
   117f0:	f1da                	sd	s6,224(sp)
   117f2:	cdae                	sw	a1,216(sp)
   117f4:	471d                	li	a4,7
   117f6:	09c1                	addi	s3,s3,16
   117f8:	3eb74ae3          	blt	a4,a1,123ec <_vfprintf_r+0xdd2>
   117fc:	08000713          	li	a4,128
   11800:	2ee903e3          	beq	s2,a4,122e6 <_vfprintf_r+0xccc>
   11804:	4153033b          	subw	t1,t1,s5
   11808:	58604f63          	bgtz	t1,11da6 <_vfprintf_r+0x78c>
   1180c:	100f7713          	andi	a4,t5,256
   11810:	62071963          	bnez	a4,11e42 <_vfprintf_r+0x828>
   11814:	476e                	lw	a4,216(sp)
   11816:	9b56                	add	s6,s6,s5
   11818:	f1da                	sd	s6,224(sp)
   1181a:	2705                	addiw	a4,a4,1
   1181c:	01b9b023          	sd	s11,0(s3)
   11820:	0159b423          	sd	s5,8(s3)
   11824:	cdba                	sw	a4,216(sp)
   11826:	479d                	li	a5,7
   11828:	4ce7c663          	blt	a5,a4,11cf4 <_vfprintf_r+0x6da>
   1182c:	09c1                	addi	s3,s3,16
   1182e:	004f7f13          	andi	t5,t5,4
   11832:	000f0663          	beqz	t5,1183e <_vfprintf_r+0x224>
   11836:	41ac8abb          	subw	s5,s9,s10
   1183a:	3d5049e3          	bgtz	s5,1240c <_vfprintf_r+0xdf2>
   1183e:	87e6                	mv	a5,s9
   11840:	01acd363          	bge	s9,s10,11846 <_vfprintf_r+0x22c>
   11844:	87ea                	mv	a5,s10
   11846:	6742                	ld	a4,16(sp)
   11848:	9fb9                	addw	a5,a5,a4
   1184a:	e83e                	sd	a5,16(sp)
   1184c:	340b14e3          	bnez	s6,12394 <_vfprintf_r+0xd7a>
   11850:	7782                	ld	a5,32(sp)
   11852:	cd82                	sw	zero,216(sp)
   11854:	c789                	beqz	a5,1185e <_vfprintf_r+0x244>
   11856:	7582                	ld	a1,32(sp)
   11858:	6502                	ld	a0,0(sp)
   1185a:	d4eff0ef          	jal	10da8 <_free_r>
   1185e:	89d2                	mv	s3,s4
   11860:	8dde                	mv	s11,s7
   11862:	000dc703          	lbu	a4,0(s11)
   11866:	e6071be3          	bnez	a4,116dc <_vfprintf_r+0xc2>
   1186a:	778e                	ld	a5,224(sp)
   1186c:	6922                	ld	s2,8(sp)
   1186e:	340780e3          	beqz	a5,123ae <_vfprintf_r+0xd94>
   11872:	6502                	ld	a0,0(sp)
   11874:	0990                	addi	a2,sp,208
   11876:	85ca                	mv	a1,s2
   11878:	72f010ef          	jal	137a6 <__sprint_r>
   1187c:	3330006f          	j	123ae <_vfprintf_r+0xd94>
   11880:	01096f13          	ori	t5,s2,16
   11884:	000bce03          	lbu	t3,0(s7)
   11888:	000f091b          	sext.w	s2,t5
   1188c:	b56d                	j	11736 <_vfprintf_r+0x11c>
   1188e:	6502                	ld	a0,0(sp)
   11890:	85ca                	mv	a1,s2
   11892:	732020ef          	jal	13fc4 <__swsetup_r>
   11896:	e929                	bnez	a0,118e8 <_vfprintf_r+0x2ce>
   11898:	01091703          	lh	a4,16(s2)
   1189c:	46a9                	li	a3,10
   1189e:	8b69                	andi	a4,a4,26
   118a0:	ded71ce3          	bne	a4,a3,11698 <_vfprintf_r+0x7e>
   118a4:	01291703          	lh	a4,18(s2)
   118a8:	de0748e3          	bltz	a4,11698 <_vfprintf_r+0x7e>
   118ac:	66e2                	ld	a3,24(sp)
   118ae:	6502                	ld	a0,0(sp)
   118b0:	8656                	mv	a2,s5
   118b2:	85ca                	mv	a1,s2
   118b4:	65d010ef          	jal	13710 <__sbprintf>
   118b8:	e82a                	sd	a0,16(sp)
   118ba:	31b0006f          	j	123d4 <_vfprintf_r+0xdba>
   118be:	41bb8abb          	subw	s5,s7,s11
   118c2:	e20a98e3          	bnez	s5,116f2 <_vfprintf_r+0xd8>
   118c6:	000bc703          	lbu	a4,0(s7)
   118ca:	bd81                	j	1171a <_vfprintf_r+0x100>
   118cc:	65a2                	ld	a1,8(sp)
   118ce:	6502                	ld	a0,0(sp)
   118d0:	0990                	addi	a2,sp,208
   118d2:	6d5010ef          	jal	137a6 <__sprint_r>
   118d6:	c119                	beqz	a0,118dc <_vfprintf_r+0x2c2>
   118d8:	4970106f          	j	1356e <_vfprintf_r+0x1f54>
   118dc:	89d2                	mv	s3,s4
   118de:	bd05                	j	1170e <_vfprintf_r+0xf4>
   118e0:	03269613          	slli	a2,a3,0x32
   118e4:	d8065ee3          	bgez	a2,11680 <_vfprintf_r+0x66>
   118e8:	57fd                	li	a5,-1
   118ea:	e83e                	sd	a5,16(sp)
   118ec:	2e90006f          	j	123d4 <_vfprintf_r+0xdba>
   118f0:	00897713          	andi	a4,s2,8
   118f4:	8f4a                	mv	t5,s2
   118f6:	835a                	mv	t1,s6
   118f8:	68071be3          	bnez	a4,1278e <_vfprintf_r+0x1174>
   118fc:	67e2                	ld	a5,24(sp)
   118fe:	f072                	sd	t3,32(sp)
   11900:	fc5a                	sd	s6,56(sp)
   11902:	2388                	fld	fa0,0(a5)
   11904:	00878d13          	addi	s10,a5,8
   11908:	f84a                	sd	s2,48(sp)
   1190a:	65f070ef          	jal	19768 <__extenddftf2>
   1190e:	7362                	ld	t1,56(sp)
   11910:	7f42                	ld	t5,48(sp)
   11912:	7e02                	ld	t3,32(sp)
   11914:	ec6a                	sd	s10,24(sp)
   11916:	872a                	mv	a4,a0
   11918:	0188                	addi	a0,sp,192
   1191a:	fc1a                	sd	t1,56(sp)
   1191c:	f87a                	sd	t5,48(sp)
   1191e:	f072                	sd	t3,32(sp)
   11920:	e1ba                	sd	a4,192(sp)
   11922:	e5ae                	sd	a1,200(sp)
   11924:	5cb020ef          	jal	146ee <_ldcheck>
   11928:	d52a                	sw	a0,168(sp)
   1192a:	4709                	li	a4,2
   1192c:	7e02                	ld	t3,32(sp)
   1192e:	7f42                	ld	t5,48(sp)
   11930:	7362                	ld	t1,56(sp)
   11932:	00e51463          	bne	a0,a4,1193a <_vfprintf_r+0x320>
   11936:	2320106f          	j	12b68 <_vfprintf_r+0x154e>
   1193a:	4685                	li	a3,1
   1193c:	00d51463          	bne	a0,a3,11944 <_vfprintf_r+0x32a>
   11940:	3720106f          	j	12cb2 <_vfprintf_r+0x1698>
   11944:	06100713          	li	a4,97
   11948:	00ee1463          	bne	t3,a4,11950 <_vfprintf_r+0x336>
   1194c:	0020106f          	j	1294e <_vfprintf_r+0x1334>
   11950:	04100713          	li	a4,65
   11954:	05800793          	li	a5,88
   11958:	00ee1463          	bne	t3,a4,11960 <_vfprintf_r+0x346>
   1195c:	7f70006f          	j	12952 <_vfprintf_r+0x1338>
   11960:	577d                	li	a4,-1
   11962:	00e31463          	bne	t1,a4,1196a <_vfprintf_r+0x350>
   11966:	3550106f          	j	134ba <_vfprintf_r+0x1ea0>
   1196a:	678e                	ld	a5,192(sp)
   1196c:	100f6b13          	ori	s6,t5,256
   11970:	06700613          	li	a2,103
   11974:	6aae                	ld	s5,200(sp)
   11976:	2b01                	sext.w	s6,s6
   11978:	8c3e                	mv	s8,a5
   1197a:	00ce1463          	bne	t3,a2,11982 <_vfprintf_r+0x368>
   1197e:	3f70106f          	j	13574 <_vfprintf_r+0x1f5a>
   11982:	04700613          	li	a2,71
   11986:	00ce1463          	bne	t3,a2,1198e <_vfprintf_r+0x374>
   1198a:	2070106f          	j	13390 <_vfprintf_r+0x1d76>
   1198e:	f87a                	sd	t5,48(sp)
   11990:	000ad463          	bgez	s5,11998 <_vfprintf_r+0x37e>
   11994:	49b0106f          	j	1362e <_vfprintf_r+0x2014>
   11998:	fbfe069b          	addiw	a3,t3,-65
   1199c:	8f5a                	mv	t5,s6
   1199e:	f002                	sd	zero,32(sp)
   119a0:	e882                	sd	zero,80(sp)
   119a2:	02000613          	li	a2,32
   119a6:	02061713          	slli	a4,a2,0x20
   119aa:	4905                	li	s2,1
   119ac:	9732                	add	a4,a4,a2
   119ae:	00d916b3          	sll	a3,s2,a3
   119b2:	8f75                	and	a4,a4,a3
   119b4:	c319                	beqz	a4,119ba <_vfprintf_r+0x3a0>
   119b6:	70c0106f          	j	130c2 <_vfprintf_r+0x1aa8>
   119ba:	4641                	li	a2,16
   119bc:	02061713          	slli	a4,a2,0x20
   119c0:	9732                	add	a4,a4,a2
   119c2:	8f75                	and	a4,a4,a3
   119c4:	c319                	beqz	a4,119ca <_vfprintf_r+0x3b0>
   119c6:	1c10106f          	j	13386 <_vfprintf_r+0x1d6c>
   119ca:	02091713          	slli	a4,s2,0x20
   119ce:	974a                	add	a4,a4,s2
   119d0:	8f75                	and	a4,a4,a3
   119d2:	e319                	bnez	a4,119d8 <_vfprintf_r+0x3be>
   119d4:	1d90106f          	j	133ac <_vfprintf_r+0x1d92>
   119d8:	8562                	mv	a0,s8
   119da:	1130                	addi	a2,sp,168
   119dc:	85d6                	mv	a1,s5
   119de:	fc1a                	sd	t1,56(sp)
   119e0:	f472                	sd	t3,40(sp)
   119e2:	27f020ef          	jal	14460 <frexpl>
   119e6:	00fff6b7          	lui	a3,0xfff
   119ea:	169a                	slli	a3,a3,0x26
   119ec:	4601                	li	a2,0
   119ee:	605060ef          	jal	187f2 <__multf3>
   119f2:	4601                	li	a2,0
   119f4:	4681                	li	a3,0
   119f6:	8c2a                	mv	s8,a0
   119f8:	8b2e                	mv	s6,a1
   119fa:	415060ef          	jal	1860e <__eqtf2>
   119fe:	7e22                	ld	t3,40(sp)
   11a00:	7362                	ld	t1,56(sp)
   11a02:	e111                	bnez	a0,11a06 <_vfprintf_r+0x3ec>
   11a04:	d54a                	sw	s2,168(sp)
   11a06:	06100713          	li	a4,97
   11a0a:	00ee1463          	bne	t3,a4,11a12 <_vfprintf_r+0x3f8>
   11a0e:	4090106f          	j	13616 <_vfprintf_r+0x1ffc>
   11a12:	6769                	lui	a4,0x1a
   11a14:	93070a93          	addi	s5,a4,-1744 # 19930 <__clzdi2+0x104>
   11a18:	02031713          	slli	a4,t1,0x20
   11a1c:	9301                	srli	a4,a4,0x20
   11a1e:	0705                	addi	a4,a4,1
   11a20:	00ed87b3          	add	a5,s11,a4
   11a24:	fc4e                	sd	s3,56(sp)
   11a26:	f45e                	sd	s7,40(sp)
   11a28:	89ee                	mv	s3,s11
   11a2a:	893e                	mv	s2,a5
   11a2c:	ecf2                	sd	t3,88(sp)
   11a2e:	8d1a                	mv	s10,t1
   11a30:	a801                	j	11a40 <_vfprintf_r+0x426>
   11a32:	4601                	li	a2,0
   11a34:	4681                	li	a3,0
   11a36:	3d9060ef          	jal	1860e <__eqtf2>
   11a3a:	e119                	bnez	a0,11a40 <_vfprintf_r+0x426>
   11a3c:	38f0106f          	j	135ca <_vfprintf_r+0x1fb0>
   11a40:	040036b7          	lui	a3,0x4003
   11a44:	1692                	slli	a3,a3,0x24
   11a46:	4601                	li	a2,0
   11a48:	8562                	mv	a0,s8
   11a4a:	85da                	mv	a1,s6
   11a4c:	5a7060ef          	jal	187f2 <__multf3>
   11a50:	8b2e                	mv	s6,a1
   11a52:	8c2a                	mv	s8,a0
   11a54:	437070ef          	jal	1968a <__fixtfsi>
   11a58:	00050b9b          	sext.w	s7,a0
   11a5c:	855e                	mv	a0,s7
   11a5e:	4b9070ef          	jal	19716 <__floatsitf>
   11a62:	86ae                	mv	a3,a1
   11a64:	862a                	mv	a2,a0
   11a66:	85da                	mv	a1,s6
   11a68:	8562                	mv	a0,s8
   11a6a:	384070ef          	jal	18dee <__subtf3>
   11a6e:	017a87b3          	add	a5,s5,s7
   11a72:	0007c683          	lbu	a3,0(a5)
   11a76:	87ce                	mv	a5,s3
   11a78:	0985                	addi	s3,s3,1
   11a7a:	fed98fa3          	sb	a3,-1(s3)
   11a7e:	8c2a                	mv	s8,a0
   11a80:	8b2e                	mv	s6,a1
   11a82:	fb3918e3          	bne	s2,s3,11a32 <_vfprintf_r+0x418>
   11a86:	6e66                	ld	t3,88(sp)
   11a88:	01fff6b7          	lui	a3,0x1fff
   11a8c:	1696                	slli	a3,a3,0x25
   11a8e:	4601                	li	a2,0
   11a90:	fcbe                	sd	a5,120(sp)
   11a92:	8d5e                	mv	s10,s7
   11a94:	7ba2                	ld	s7,40(sp)
   11a96:	f472                	sd	t3,40(sp)
   11a98:	41f060ef          	jal	186b6 <__getf2>
   11a9c:	894e                	mv	s2,s3
   11a9e:	7e22                	ld	t3,40(sp)
   11aa0:	79e2                	ld	s3,56(sp)
   11aa2:	77e6                	ld	a5,120(sp)
   11aa4:	02a04263          	bgtz	a0,11ac8 <_vfprintf_r+0x4ae>
   11aa8:	01fff6b7          	lui	a3,0x1fff
   11aac:	8562                	mv	a0,s8
   11aae:	85da                	mv	a1,s6
   11ab0:	1696                	slli	a3,a3,0x25
   11ab2:	4601                	li	a2,0
   11ab4:	fc72                	sd	t3,56(sp)
   11ab6:	f43e                	sd	a5,40(sp)
   11ab8:	357060ef          	jal	1860e <__eqtf2>
   11abc:	7e62                	ld	t3,56(sp)
   11abe:	e521                	bnez	a0,11b06 <_vfprintf_r+0x4ec>
   11ac0:	001d7713          	andi	a4,s10,1
   11ac4:	77a2                	ld	a5,40(sp)
   11ac6:	c321                	beqz	a4,11b06 <_vfprintf_r+0x4ec>
   11ac8:	fd3e                	sd	a5,184(sp)
   11aca:	fff94683          	lbu	a3,-1(s2)
   11ace:	00fac603          	lbu	a2,15(s5)
   11ad2:	874a                	mv	a4,s2
   11ad4:	00c69e63          	bne	a3,a2,11af0 <_vfprintf_r+0x4d6>
   11ad8:	03000593          	li	a1,48
   11adc:	feb70fa3          	sb	a1,-1(a4)
   11ae0:	776a                	ld	a4,184(sp)
   11ae2:	fff70793          	addi	a5,a4,-1
   11ae6:	fd3e                	sd	a5,184(sp)
   11ae8:	fff74683          	lbu	a3,-1(a4)
   11aec:	fec688e3          	beq	a3,a2,11adc <_vfprintf_r+0x4c2>
   11af0:	03900613          	li	a2,57
   11af4:	00c69463          	bne	a3,a2,11afc <_vfprintf_r+0x4e2>
   11af8:	33d0106f          	j	13634 <_vfprintf_r+0x201a>
   11afc:	2685                	addiw	a3,a3,1 # 1fff001 <__BSS_END__+0x1fe2d71>
   11afe:	0ff6f693          	zext.b	a3,a3
   11b02:	fed70fa3          	sb	a3,-1(a4)
   11b06:	5c2a                	lw	s8,168(sp)
   11b08:	41b907bb          	subw	a5,s2,s11
   11b0c:	06100613          	li	a2,97
   11b10:	fffc069b          	addiw	a3,s8,-1
   11b14:	f43e                	sd	a5,40(sp)
   11b16:	d536                	sw	a3,168(sp)
   11b18:	8736                	mv	a4,a3
   11b1a:	00ce1463          	bne	t3,a2,11b22 <_vfprintf_r+0x508>
   11b1e:	2e70106f          	j	13604 <_vfprintf_r+0x1fea>
   11b22:	04100593          	li	a1,65
   11b26:	05000613          	li	a2,80
   11b2a:	00be0463          	beq	t3,a1,11b32 <_vfprintf_r+0x518>
   11b2e:	6220106f          	j	13150 <_vfprintf_r+0x1b36>
   11b32:	0ac10823          	sb	a2,176(sp)
   11b36:	0006d463          	bgez	a3,11b3e <_vfprintf_r+0x524>
   11b3a:	53e0106f          	j	13078 <_vfprintf_r+0x1a5e>
   11b3e:	02b00613          	li	a2,43
   11b42:	0ac108a3          	sb	a2,177(sp)
   11b46:	4625                	li	a2,9
   11b48:	00d64463          	blt	a2,a3,11b50 <_vfprintf_r+0x536>
   11b4c:	5440106f          	j	13090 <_vfprintf_r+0x1a76>
   11b50:	0bf10893          	addi	a7,sp,191
   11b54:	66666837          	lui	a6,0x66666
   11b58:	85c6                	mv	a1,a7
   11b5a:	66780813          	addi	a6,a6,1639 # 66666667 <__BSS_END__+0x6664a3d7>
   11b5e:	06300313          	li	t1,99
   11b62:	030706b3          	mul	a3,a4,a6
   11b66:	41f7579b          	sraiw	a5,a4,0x1f
   11b6a:	862e                	mv	a2,a1
   11b6c:	853a                	mv	a0,a4
   11b6e:	15fd                	addi	a1,a1,-1
   11b70:	9689                	srai	a3,a3,0x22
   11b72:	9e9d                	subw	a3,a3,a5
   11b74:	0026979b          	slliw	a5,a3,0x2
   11b78:	9fb5                	addw	a5,a5,a3
   11b7a:	0017979b          	slliw	a5,a5,0x1
   11b7e:	40f707bb          	subw	a5,a4,a5
   11b82:	0307879b          	addiw	a5,a5,48
   11b86:	fef60fa3          	sb	a5,-1(a2)
   11b8a:	8736                	mv	a4,a3
   11b8c:	fca34be3          	blt	t1,a0,11b62 <_vfprintf_r+0x548>
   11b90:	0306871b          	addiw	a4,a3,48
   11b94:	fee58fa3          	sb	a4,-1(a1)
   11b98:	ffe60713          	addi	a4,a2,-2
   11b9c:	01176463          	bltu	a4,a7,11ba4 <_vfprintf_r+0x58a>
   11ba0:	2cf0106f          	j	1366e <_vfprintf_r+0x2054>
   11ba4:	0b210513          	addi	a0,sp,178
   11ba8:	86aa                	mv	a3,a0
   11baa:	00074783          	lbu	a5,0(a4)
   11bae:	0705                	addi	a4,a4,1
   11bb0:	0685                	addi	a3,a3,1
   11bb2:	fef68fa3          	sb	a5,-1(a3)
   11bb6:	ff171ae3          	bne	a4,a7,11baa <_vfprintf_r+0x590>
   11bba:	972a                	add	a4,a4,a0
   11bbc:	0709                	addi	a4,a4,2
   11bbe:	8f11                	sub	a4,a4,a2
   11bc0:	1914                	addi	a3,sp,176
   11bc2:	40d707bb          	subw	a5,a4,a3
   11bc6:	ecbe                	sd	a5,88(sp)
   11bc8:	77a2                	ld	a5,40(sp)
   11bca:	6766                	ld	a4,88(sp)
   11bcc:	4685                	li	a3,1
   11bce:	9f3d                	addw	a4,a4,a5
   11bd0:	8aba                	mv	s5,a4
   11bd2:	00f6c463          	blt	a3,a5,11bda <_vfprintf_r+0x5c0>
   11bd6:	0d70106f          	j	134ac <_vfprintf_r+0x1e92>
   11bda:	6786                	ld	a5,64(sp)
   11bdc:	00e78abb          	addw	s5,a5,a4
   11be0:	77c2                	ld	a5,48(sp)
   11be2:	8856                	mv	a6,s5
   11be4:	bff7ff13          	andi	t5,a5,-1025
   11be8:	2f01                	sext.w	t5,t5
   11bea:	100f6f13          	ori	t5,t5,256
   11bee:	000ad363          	bgez	s5,11bf4 <_vfprintf_r+0x5da>
   11bf2:	4801                	li	a6,0
   11bf4:	00080d1b          	sext.w	s10,a6
   11bf8:	fc02                	sd	zero,56(sp)
   11bfa:	f802                	sd	zero,48(sp)
   11bfc:	4c01                	li	s8,0
   11bfe:	67c6                	ld	a5,80(sp)
   11c00:	002f7613          	andi	a2,t5,2
   11c04:	e399                	bnez	a5,11c0a <_vfprintf_r+0x5f0>
   11c06:	4a60106f          	j	130ac <_vfprintf_r+0x1a92>
   11c0a:	02d00513          	li	a0,45
   11c0e:	08a10fa3          	sb	a0,159(sp)
   11c12:	2d05                	addiw	s10,s10,1
   11c14:	4301                	li	t1,0
   11c16:	b80609e3          	beqz	a2,117a8 <_vfprintf_r+0x18e>
   11c1a:	7b0e                	ld	s6,224(sp)
   11c1c:	45ee                	lw	a1,216(sp)
   11c1e:	084f7913          	andi	s2,t5,132
   11c22:	2d09                	addiw	s10,s10,2
   11c24:	865a                	mv	a2,s6
   11c26:	86ae                	mv	a3,a1
   11c28:	56090ee3          	beqz	s2,129a4 <_vfprintf_r+0x138a>
   11c2c:	4709                	li	a4,2
   11c2e:	b80518e3          	bnez	a0,117be <_vfprintf_r+0x1a4>
   11c32:	b67d                	j	117e0 <_vfprintf_r+0x1c6>
   11c34:	65a2                	ld	a1,8(sp)
   11c36:	6502                	ld	a0,0(sp)
   11c38:	0990                	addi	a2,sp,208
   11c3a:	e51a                	sd	t1,136(sp)
   11c3c:	e17a                	sd	t5,128(sp)
   11c3e:	fcf2                	sd	t3,120(sp)
   11c40:	e8ba                	sd	a4,80(sp)
   11c42:	365010ef          	jal	137a6 <__sprint_r>
   11c46:	74051e63          	bnez	a0,123a2 <_vfprintf_r+0xd88>
   11c4a:	7b0e                	ld	s6,224(sp)
   11c4c:	632a                	ld	t1,136(sp)
   11c4e:	6f0a                	ld	t5,128(sp)
   11c50:	7e66                	ld	t3,120(sp)
   11c52:	6746                	ld	a4,80(sp)
   11c54:	89d2                	mv	s3,s4
   11c56:	b659                	j	117dc <_vfprintf_r+0x1c2>
   11c58:	4aee                	lw	s5,216(sp)
   11c5a:	77a2                	ld	a5,40(sp)
   11c5c:	4685                	li	a3,1
   11c5e:	2a85                	addiw	s5,s5,1
   11c60:	9b36                	add	s6,s6,a3
   11c62:	8756                	mv	a4,s5
   11c64:	01098893          	addi	a7,s3,16
   11c68:	1cf6d3e3          	bge	a3,a5,1262e <_vfprintf_r+0x1014>
   11c6c:	4685                	li	a3,1
   11c6e:	00d9b423          	sd	a3,8(s3)
   11c72:	01b9b023          	sd	s11,0(s3)
   11c76:	f1da                	sd	s6,224(sp)
   11c78:	cdba                	sw	a4,216(sp)
   11c7a:	469d                	li	a3,7
   11c7c:	58e6c6e3          	blt	a3,a4,12a08 <_vfprintf_r+0x13ee>
   11c80:	6786                	ld	a5,64(sp)
   11c82:	6726                	ld	a4,72(sp)
   11c84:	2a85                	addiw	s5,s5,1
   11c86:	9b3e                	add	s6,s6,a5
   11c88:	00e8b023          	sd	a4,0(a7)
   11c8c:	00f8b423          	sd	a5,8(a7)
   11c90:	f1da                	sd	s6,224(sp)
   11c92:	cdd6                	sw	s5,216(sp)
   11c94:	471d                	li	a4,7
   11c96:	08c1                	addi	a7,a7,16
   11c98:	595746e3          	blt	a4,s5,12a24 <_vfprintf_r+0x140a>
   11c9c:	77a2                	ld	a5,40(sp)
   11c9e:	650e                	ld	a0,192(sp)
   11ca0:	65ae                	ld	a1,200(sp)
   11ca2:	4601                	li	a2,0
   11ca4:	4681                	li	a3,0
   11ca6:	fc7a                	sd	t5,56(sp)
   11ca8:	f846                	sd	a7,48(sp)
   11caa:	fff7899b          	addiw	s3,a5,-1
   11cae:	161060ef          	jal	1860e <__eqtf2>
   11cb2:	78c2                	ld	a7,48(sp)
   11cb4:	7f62                	ld	t5,56(sp)
   11cb6:	1a0507e3          	beqz	a0,12664 <_vfprintf_r+0x104a>
   11cba:	001d8793          	addi	a5,s11,1
   11cbe:	2a85                	addiw	s5,s5,1
   11cc0:	9b4e                	add	s6,s6,s3
   11cc2:	00f8b023          	sd	a5,0(a7)
   11cc6:	cdd6                	sw	s5,216(sp)
   11cc8:	f1da                	sd	s6,224(sp)
   11cca:	0138b423          	sd	s3,8(a7)
   11cce:	479d                	li	a5,7
   11cd0:	1757cce3          	blt	a5,s5,12648 <_vfprintf_r+0x102e>
   11cd4:	08c1                	addi	a7,a7,16
   11cd6:	6766                	ld	a4,88(sp)
   11cd8:	191c                	addi	a5,sp,176
   11cda:	2a85                	addiw	s5,s5,1
   11cdc:	9b3a                	add	s6,s6,a4
   11cde:	00f8b023          	sd	a5,0(a7)
   11ce2:	f1da                	sd	s6,224(sp)
   11ce4:	cdd6                	sw	s5,216(sp)
   11ce6:	00e8b423          	sd	a4,8(a7)
   11cea:	479d                	li	a5,7
   11cec:	01088993          	addi	s3,a7,16
   11cf0:	b357dfe3          	bge	a5,s5,1182e <_vfprintf_r+0x214>
   11cf4:	65a2                	ld	a1,8(sp)
   11cf6:	6502                	ld	a0,0(sp)
   11cf8:	0990                	addi	a2,sp,208
   11cfa:	f87a                	sd	t5,48(sp)
   11cfc:	2ab010ef          	jal	137a6 <__sprint_r>
   11d00:	6a051163          	bnez	a0,123a2 <_vfprintf_r+0xd88>
   11d04:	7b0e                	ld	s6,224(sp)
   11d06:	7f42                	ld	t5,48(sp)
   11d08:	89d2                	mv	s3,s4
   11d0a:	b615                	j	1182e <_vfprintf_r+0x214>
   11d0c:	6762                	ld	a4,24(sp)
   11d0e:	8f4a                	mv	t5,s2
   11d10:	4a85                	li	s5,1
   11d12:	431c                	lw	a5,0(a4)
   11d14:	08010fa3          	sb	zero,159(sp)
   11d18:	0ef10423          	sb	a5,232(sp)
   11d1c:	00870793          	addi	a5,a4,8
   11d20:	ec3e                	sd	a5,24(sp)
   11d22:	bc9d                	j	11798 <_vfprintf_r+0x17e>
   11d24:	67e2                	ld	a5,24(sp)
   11d26:	08010fa3          	sb	zero,159(sp)
   11d2a:	8f4a                	mv	t5,s2
   11d2c:	0007bd83          	ld	s11,0(a5)
   11d30:	00878913          	addi	s2,a5,8
   11d34:	3a0d86e3          	beqz	s11,128e0 <_vfprintf_r+0x12c6>
   11d38:	6c0b46e3          	bltz	s6,12c04 <_vfprintf_r+0x15ea>
   11d3c:	865a                	mv	a2,s6
   11d3e:	4581                	li	a1,0
   11d40:	856e                	mv	a0,s11
   11d42:	fc7a                	sd	t5,56(sp)
   11d44:	f872                	sd	t3,48(sp)
   11d46:	ec5a                	sd	s6,24(sp)
   11d48:	39a020ef          	jal	140e2 <memchr>
   11d4c:	f02a                	sd	a0,32(sp)
   11d4e:	09f14703          	lbu	a4,159(sp)
   11d52:	6362                	ld	t1,24(sp)
   11d54:	7e42                	ld	t3,48(sp)
   11d56:	7f62                	ld	t5,56(sp)
   11d58:	e119                	bnez	a0,11d5e <_vfprintf_r+0x744>
   11d5a:	57a0106f          	j	132d4 <_vfprintf_r+0x1cba>
   11d5e:	41b50abb          	subw	s5,a0,s11
   11d62:	86d6                	mv	a3,s5
   11d64:	000ad463          	bgez	s5,11d6c <_vfprintf_r+0x752>
   11d68:	2500106f          	j	12fb8 <_vfprintf_r+0x199e>
   11d6c:	00068d1b          	sext.w	s10,a3
   11d70:	c319                	beqz	a4,11d76 <_vfprintf_r+0x75c>
   11d72:	1ee0106f          	j	12f60 <_vfprintf_r+0x1946>
   11d76:	ec4a                	sd	s2,24(sp)
   11d78:	7b0e                	ld	s6,224(sp)
   11d7a:	f002                	sd	zero,32(sp)
   11d7c:	fc02                	sd	zero,56(sp)
   11d7e:	f802                	sd	zero,48(sp)
   11d80:	084f7913          	andi	s2,t5,132
   11d84:	4301                	li	t1,0
   11d86:	4c01                	li	s8,0
   11d88:	865a                	mv	a2,s6
   11d8a:	a20915e3          	bnez	s2,117b4 <_vfprintf_r+0x19a>
   11d8e:	41ac873b          	subw	a4,s9,s10
   11d92:	00e043e3          	bgtz	a4,12598 <_vfprintf_r+0xf7e>
   11d96:	09f14703          	lbu	a4,159(sp)
   11d9a:	a20710e3          	bnez	a4,117ba <_vfprintf_r+0x1a0>
   11d9e:	4153033b          	subw	t1,t1,s5
   11da2:	a66055e3          	blez	t1,1180c <_vfprintf_r+0x1f2>
   11da6:	6769                	lui	a4,0x1a
   11da8:	466e                	lw	a2,216(sp)
   11daa:	bf870913          	addi	s2,a4,-1032 # 19bf8 <zeroes.0>
   11dae:	0464dd63          	bge	s1,t1,11e08 <_vfprintf_r+0x7ee>
   11db2:	87ce                	mv	a5,s3
   11db4:	875a                	mv	a4,s6
   11db6:	89ca                	mv	s3,s2
   11db8:	8b56                	mv	s6,s5
   11dba:	469d                	li	a3,7
   11dbc:	e8f2                	sd	t3,80(sp)
   11dbe:	8afa                	mv	s5,t5
   11dc0:	891a                	mv	s2,t1
   11dc2:	a021                	j	11dca <_vfprintf_r+0x7b0>
   11dc4:	3941                	addiw	s2,s2,-16
   11dc6:	0324da63          	bge	s1,s2,11dfa <_vfprintf_r+0x7e0>
   11dca:	0741                	addi	a4,a4,16
   11dcc:	2605                	addiw	a2,a2,1
   11dce:	0137b023          	sd	s3,0(a5)
   11dd2:	e784                	sd	s1,8(a5)
   11dd4:	f1ba                	sd	a4,224(sp)
   11dd6:	cdb2                	sw	a2,216(sp)
   11dd8:	07c1                	addi	a5,a5,16
   11dda:	fec6d5e3          	bge	a3,a2,11dc4 <_vfprintf_r+0x7aa>
   11dde:	65a2                	ld	a1,8(sp)
   11de0:	6502                	ld	a0,0(sp)
   11de2:	0990                	addi	a2,sp,208
   11de4:	1c3010ef          	jal	137a6 <__sprint_r>
   11de8:	5a051d63          	bnez	a0,123a2 <_vfprintf_r+0xd88>
   11dec:	3941                	addiw	s2,s2,-16
   11dee:	770e                	ld	a4,224(sp)
   11df0:	466e                	lw	a2,216(sp)
   11df2:	87d2                	mv	a5,s4
   11df4:	469d                	li	a3,7
   11df6:	fd24cae3          	blt	s1,s2,11dca <_vfprintf_r+0x7b0>
   11dfa:	6e46                	ld	t3,80(sp)
   11dfc:	834a                	mv	t1,s2
   11dfe:	8f56                	mv	t5,s5
   11e00:	894e                	mv	s2,s3
   11e02:	8ada                	mv	s5,s6
   11e04:	89be                	mv	s3,a5
   11e06:	8b3a                	mv	s6,a4
   11e08:	9b1a                	add	s6,s6,t1
   11e0a:	2605                	addiw	a2,a2,1
   11e0c:	0129b023          	sd	s2,0(s3)
   11e10:	0069b423          	sd	t1,8(s3)
   11e14:	f1da                	sd	s6,224(sp)
   11e16:	cdb2                	sw	a2,216(sp)
   11e18:	471d                	li	a4,7
   11e1a:	09c1                	addi	s3,s3,16
   11e1c:	9ec758e3          	bge	a4,a2,1180c <_vfprintf_r+0x1f2>
   11e20:	65a2                	ld	a1,8(sp)
   11e22:	6502                	ld	a0,0(sp)
   11e24:	0990                	addi	a2,sp,208
   11e26:	fcfa                	sd	t5,120(sp)
   11e28:	e8f2                	sd	t3,80(sp)
   11e2a:	17d010ef          	jal	137a6 <__sprint_r>
   11e2e:	56051a63          	bnez	a0,123a2 <_vfprintf_r+0xd88>
   11e32:	7f66                	ld	t5,120(sp)
   11e34:	7b0e                	ld	s6,224(sp)
   11e36:	6e46                	ld	t3,80(sp)
   11e38:	100f7713          	andi	a4,t5,256
   11e3c:	89d2                	mv	s3,s4
   11e3e:	9c070be3          	beqz	a4,11814 <_vfprintf_r+0x1fa>
   11e42:	06500713          	li	a4,101
   11e46:	e1c759e3          	bge	a4,t3,11c58 <_vfprintf_r+0x63e>
   11e4a:	650e                	ld	a0,192(sp)
   11e4c:	65ae                	ld	a1,200(sp)
   11e4e:	4601                	li	a2,0
   11e50:	4681                	li	a3,0
   11e52:	e8fa                	sd	t5,80(sp)
   11e54:	7ba060ef          	jal	1860e <__eqtf2>
   11e58:	6f46                	ld	t5,80(sp)
   11e5a:	62051663          	bnez	a0,12486 <_vfprintf_r+0xe6c>
   11e5e:	47ee                	lw	a5,216(sp)
   11e60:	6769                	lui	a4,0x1a
   11e62:	95070713          	addi	a4,a4,-1712 # 19950 <__clzdi2+0x124>
   11e66:	0b05                	addi	s6,s6,1
   11e68:	2785                	addiw	a5,a5,1
   11e6a:	4685                	li	a3,1
   11e6c:	00e9b023          	sd	a4,0(s3)
   11e70:	00d9b423          	sd	a3,8(s3)
   11e74:	f1da                	sd	s6,224(sp)
   11e76:	cdbe                	sw	a5,216(sp)
   11e78:	471d                	li	a4,7
   11e7a:	09c1                	addi	s3,s3,16
   11e7c:	4af747e3          	blt	a4,a5,12b2a <_vfprintf_r+0x1510>
   11e80:	57aa                	lw	a5,168(sp)
   11e82:	7722                	ld	a4,40(sp)
   11e84:	02e7dee3          	bge	a5,a4,126c0 <_vfprintf_r+0x10a6>
   11e88:	6706                	ld	a4,64(sp)
   11e8a:	47ee                	lw	a5,216(sp)
   11e8c:	66a6                	ld	a3,72(sp)
   11e8e:	9b3a                	add	s6,s6,a4
   11e90:	2785                	addiw	a5,a5,1
   11e92:	00e9b423          	sd	a4,8(s3)
   11e96:	00d9b023          	sd	a3,0(s3)
   11e9a:	f1da                	sd	s6,224(sp)
   11e9c:	cdbe                	sw	a5,216(sp)
   11e9e:	471d                	li	a4,7
   11ea0:	09c1                	addi	s3,s3,16
   11ea2:	1ef74ee3          	blt	a4,a5,1289e <_vfprintf_r+0x1284>
   11ea6:	77a2                	ld	a5,40(sp)
   11ea8:	fff78a9b          	addiw	s5,a5,-1
   11eac:	995051e3          	blez	s5,1182e <_vfprintf_r+0x214>
   11eb0:	6769                	lui	a4,0x1a
   11eb2:	46c1                	li	a3,16
   11eb4:	47ee                	lw	a5,216(sp)
   11eb6:	bf870913          	addi	s2,a4,-1032 # 19bf8 <zeroes.0>
   11eba:	4956d8e3          	bge	a3,s5,12b4a <_vfprintf_r+0x1530>
   11ebe:	8c4a                	mv	s8,s2
   11ec0:	8336                	mv	t1,a3
   11ec2:	8956                	mv	s2,s5
   11ec4:	4d9d                	li	s11,7
   11ec6:	8afa                	mv	s5,t5
   11ec8:	a021                	j	11ed0 <_vfprintf_r+0x8b6>
   11eca:	3941                	addiw	s2,s2,-16
   11ecc:	47235ce3          	bge	t1,s2,12b44 <_vfprintf_r+0x152a>
   11ed0:	0b41                	addi	s6,s6,16
   11ed2:	2785                	addiw	a5,a5,1
   11ed4:	0189b023          	sd	s8,0(s3)
   11ed8:	00d9b423          	sd	a3,8(s3)
   11edc:	f1da                	sd	s6,224(sp)
   11ede:	cdbe                	sw	a5,216(sp)
   11ee0:	09c1                	addi	s3,s3,16
   11ee2:	fefdd4e3          	bge	s11,a5,11eca <_vfprintf_r+0x8b0>
   11ee6:	65a2                	ld	a1,8(sp)
   11ee8:	6502                	ld	a0,0(sp)
   11eea:	0990                	addi	a2,sp,208
   11eec:	0bb010ef          	jal	137a6 <__sprint_r>
   11ef0:	4a051963          	bnez	a0,123a2 <_vfprintf_r+0xd88>
   11ef4:	4341                	li	t1,16
   11ef6:	7b0e                	ld	s6,224(sp)
   11ef8:	47ee                	lw	a5,216(sp)
   11efa:	89d2                	mv	s3,s4
   11efc:	869a                	mv	a3,t1
   11efe:	b7f1                	j	11eca <_vfprintf_r+0x8b0>
   11f00:	67e2                	ld	a5,24(sp)
   11f02:	02097713          	andi	a4,s2,32
   11f06:	8f4a                	mv	t5,s2
   11f08:	835a                	mv	t1,s6
   11f0a:	07a1                	addi	a5,a5,8
   11f0c:	ef31                	bnez	a4,11f68 <_vfprintf_r+0x94e>
   11f0e:	01097713          	andi	a4,s2,16
   11f12:	c319                	beqz	a4,11f18 <_vfprintf_r+0x8fe>
   11f14:	41c0106f          	j	13330 <_vfprintf_r+0x1d16>
   11f18:	66e2                	ld	a3,24(sp)
   11f1a:	04097713          	andi	a4,s2,64
   11f1e:	0006aa83          	lw	s5,0(a3)
   11f22:	52070fe3          	beqz	a4,12c60 <_vfprintf_r+0x1646>
   11f26:	010a9a9b          	slliw	s5,s5,0x10
   11f2a:	410ada9b          	sraiw	s5,s5,0x10
   11f2e:	ec3e                	sd	a5,24(sp)
   11f30:	8756                	mv	a4,s5
   11f32:	04074163          	bltz	a4,11f74 <_vfprintf_r+0x95a>
   11f36:	04034a63          	bltz	t1,11f8a <_vfprintf_r+0x970>
   11f3a:	f7ff7f13          	andi	t5,t5,-129
   11f3e:	2f01                	sext.w	t5,t5
   11f40:	040a9563          	bnez	s5,11f8a <_vfprintf_r+0x970>
   11f44:	00031463          	bnez	t1,11f4c <_vfprintf_r+0x932>
   11f48:	7f10006f          	j	12f38 <_vfprintf_r+0x191e>
   11f4c:	03000793          	li	a5,48
   11f50:	a0a1                	j	11f98 <_vfprintf_r+0x97e>
   11f52:	01096693          	ori	a3,s2,16
   11f56:	02097f13          	andi	t5,s2,32
   11f5a:	835a                	mv	t1,s6
   11f5c:	2681                	sext.w	a3,a3
   11f5e:	040f03e3          	beqz	t5,127a4 <_vfprintf_r+0x118a>
   11f62:	67e2                	ld	a5,24(sp)
   11f64:	8f36                	mv	t5,a3
   11f66:	07a1                	addi	a5,a5,8
   11f68:	6762                	ld	a4,24(sp)
   11f6a:	ec3e                	sd	a5,24(sp)
   11f6c:	6318                	ld	a4,0(a4)
   11f6e:	8aba                	mv	s5,a4
   11f70:	fc0753e3          	bgez	a4,11f36 <_vfprintf_r+0x91c>
   11f74:	02d00793          	li	a5,45
   11f78:	08f10fa3          	sb	a5,159(sp)
   11f7c:	41500ab3          	neg	s5,s5
   11f80:	00034563          	bltz	t1,11f8a <_vfprintf_r+0x970>
   11f84:	f7ff7f13          	andi	t5,t5,-129
   11f88:	2f01                	sext.w	t5,t5
   11f8a:	4da5                	li	s11,9
   11f8c:	775def63          	bltu	s11,s5,1270a <_vfprintf_r+0x10f0>
   11f90:	030a879b          	addiw	a5,s5,48
   11f94:	0ff7f793          	zext.b	a5,a5
   11f98:	14f105a3          	sb	a5,331(sp)
   11f9c:	881a                	mv	a6,t1
   11f9e:	00604363          	bgtz	t1,11fa4 <_vfprintf_r+0x98a>
   11fa2:	4805                	li	a6,1
   11fa4:	09f14703          	lbu	a4,159(sp)
   11fa8:	00080d1b          	sext.w	s10,a6
   11fac:	4a85                	li	s5,1
   11fae:	14b10d93          	addi	s11,sp,331
   11fb2:	cf65                	beqz	a4,120aa <_vfprintf_r+0xa90>
   11fb4:	2d05                	addiw	s10,s10,1
   11fb6:	f002                	sd	zero,32(sp)
   11fb8:	fc02                	sd	zero,56(sp)
   11fba:	f802                	sd	zero,48(sp)
   11fbc:	4c01                	li	s8,0
   11fbe:	feaff06f          	j	117a8 <_vfprintf_r+0x18e>
   11fc2:	67e2                	ld	a5,24(sp)
   11fc4:	0007ac83          	lw	s9,0(a5)
   11fc8:	07a1                	addi	a5,a5,8
   11fca:	700cd163          	bgez	s9,126cc <_vfprintf_r+0x10b2>
   11fce:	41900cbb          	negw	s9,s9
   11fd2:	ec3e                	sd	a5,24(sp)
   11fd4:	00496f13          	ori	t5,s2,4
   11fd8:	000bce03          	lbu	t3,0(s7)
   11fdc:	000f091b          	sext.w	s2,t5
   11fe0:	f56ff06f          	j	11736 <_vfprintf_r+0x11c>
   11fe4:	66e2                	ld	a3,24(sp)
   11fe6:	01096793          	ori	a5,s2,16
   11fea:	08010fa3          	sb	zero,159(sp)
   11fee:	835a                	mv	t1,s6
   11ff0:	0006ba83          	ld	s5,0(a3)
   11ff4:	2781                	sext.w	a5,a5
   11ff6:	00868713          	addi	a4,a3,8
   11ffa:	70034363          	bltz	t1,12700 <_vfprintf_r+0x10e6>
   11ffe:	f7f7f793          	andi	a5,a5,-129
   12002:	00078f1b          	sext.w	t5,a5
   12006:	140a9b63          	bnez	s5,1215c <_vfprintf_r+0xb42>
   1200a:	ec3a                	sd	a4,24(sp)
   1200c:	24030ce3          	beqz	t1,12a64 <_vfprintf_r+0x144a>
   12010:	4a81                	li	s5,0
   12012:	bfbd                	j	11f90 <_vfprintf_r+0x976>
   12014:	67e2                	ld	a5,24(sp)
   12016:	01096813          	ori	a6,s2,16
   1201a:	835a                	mv	t1,s6
   1201c:	2801                	sext.w	a6,a6
   1201e:	07a1                	addi	a5,a5,8
   12020:	6762                	ld	a4,24(sp)
   12022:	6318                	ld	a4,0(a4)
   12024:	ec3e                	sd	a5,24(sp)
   12026:	08010fa3          	sb	zero,159(sp)
   1202a:	02034463          	bltz	t1,12052 <_vfprintf_r+0xa38>
   1202e:	b7f87f13          	andi	t5,a6,-1153
   12032:	2f01                	sext.w	t5,t5
   12034:	e31d                	bnez	a4,1205a <_vfprintf_r+0xa40>
   12036:	02031263          	bnez	t1,1205a <_vfprintf_r+0xa40>
   1203a:	00187d13          	andi	s10,a6,1
   1203e:	2a0d0be3          	beqz	s10,12af4 <_vfprintf_r+0x14da>
   12042:	03000793          	li	a5,48
   12046:	14f105a3          	sb	a5,331(sp)
   1204a:	8aea                	mv	s5,s10
   1204c:	14b10d93          	addi	s11,sp,331
   12050:	a8a9                	j	120aa <_vfprintf_r+0xa90>
   12052:	bff87813          	andi	a6,a6,-1025
   12056:	00080f1b          	sext.w	t5,a6
   1205a:	14c10913          	addi	s2,sp,332
   1205e:	8dca                	mv	s11,s2
   12060:	00777693          	andi	a3,a4,7
   12064:	866e                	mv	a2,s11
   12066:	03068693          	addi	a3,a3,48
   1206a:	830d                	srli	a4,a4,0x3
   1206c:	fedd8fa3          	sb	a3,-1(s11)
   12070:	1dfd                	addi	s11,s11,-1
   12072:	f77d                	bnez	a4,12060 <_vfprintf_r+0xa46>
   12074:	001f7713          	andi	a4,t5,1
   12078:	c315                	beqz	a4,1209c <_vfprintf_r+0xa82>
   1207a:	03000713          	li	a4,48
   1207e:	00e68f63          	beq	a3,a4,1209c <_vfprintf_r+0xa82>
   12082:	1679                	addi	a2,a2,-2
   12084:	40c90abb          	subw	s5,s2,a2
   12088:	feed8fa3          	sb	a4,-1(s11)
   1208c:	881a                	mv	a6,t1
   1208e:	01535363          	bge	t1,s5,12094 <_vfprintf_r+0xa7a>
   12092:	8856                	mv	a6,s5
   12094:	00080d1b          	sext.w	s10,a6
   12098:	8db2                	mv	s11,a2
   1209a:	a801                	j	120aa <_vfprintf_r+0xa90>
   1209c:	41b90abb          	subw	s5,s2,s11
   120a0:	881a                	mv	a6,t1
   120a2:	61534d63          	blt	t1,s5,126bc <_vfprintf_r+0x10a2>
   120a6:	00080d1b          	sext.w	s10,a6
   120aa:	f002                	sd	zero,32(sp)
   120ac:	fc02                	sd	zero,56(sp)
   120ae:	f802                	sd	zero,48(sp)
   120b0:	4c01                	li	s8,0
   120b2:	ef6ff06f          	j	117a8 <_vfprintf_r+0x18e>
   120b6:	000bce03          	lbu	t3,0(s7)
   120ba:	06800793          	li	a5,104
   120be:	00fe06e3          	beq	t3,a5,128ca <_vfprintf_r+0x12b0>
   120c2:	04096f13          	ori	t5,s2,64
   120c6:	000f091b          	sext.w	s2,t5
   120ca:	e6cff06f          	j	11736 <_vfprintf_r+0x11c>
   120ce:	66e2                	ld	a3,24(sp)
   120d0:	02097793          	andi	a5,s2,32
   120d4:	6298                	ld	a4,0(a3)
   120d6:	06a1                	addi	a3,a3,8
   120d8:	ec36                	sd	a3,24(sp)
   120da:	60079263          	bnez	a5,126de <_vfprintf_r+0x10c4>
   120de:	01097793          	andi	a5,s2,16
   120e2:	5e079e63          	bnez	a5,126de <_vfprintf_r+0x10c4>
   120e6:	04097793          	andi	a5,s2,64
   120ea:	700790e3          	bnez	a5,12fea <_vfprintf_r+0x19d0>
   120ee:	20097f13          	andi	t5,s2,512
   120f2:	67c2                	ld	a5,16(sp)
   120f4:	000f1463          	bnez	t5,120fc <_vfprintf_r+0xae2>
   120f8:	3200106f          	j	13418 <_vfprintf_r+0x1dfe>
   120fc:	00f70023          	sb	a5,0(a4)
   12100:	8dde                	mv	s11,s7
   12102:	f60ff06f          	j	11862 <_vfprintf_r+0x248>
   12106:	000bce03          	lbu	t3,0(s7)
   1210a:	06c00793          	li	a5,108
   1210e:	7afe0563          	beq	t3,a5,128b8 <_vfprintf_r+0x129e>
   12112:	01096f13          	ori	t5,s2,16
   12116:	000f091b          	sext.w	s2,t5
   1211a:	e1cff06f          	j	11736 <_vfprintf_r+0x11c>
   1211e:	02097793          	andi	a5,s2,32
   12122:	8f4a                	mv	t5,s2
   12124:	835a                	mv	t1,s6
   12126:	5c079363          	bnez	a5,126ec <_vfprintf_r+0x10d2>
   1212a:	01097793          	andi	a5,s2,16
   1212e:	5a079f63          	bnez	a5,126ec <_vfprintf_r+0x10d2>
   12132:	66e2                	ld	a3,24(sp)
   12134:	04097793          	andi	a5,s2,64
   12138:	0006aa83          	lw	s5,0(a3)
   1213c:	00868713          	addi	a4,a3,8
   12140:	32078ce3          	beqz	a5,12c78 <_vfprintf_r+0x165e>
   12144:	1ac2                	slli	s5,s5,0x30
   12146:	08010fa3          	sb	zero,159(sp)
   1214a:	030ada93          	srli	s5,s5,0x30
   1214e:	000b4763          	bltz	s6,1215c <_vfprintf_r+0xb42>
   12152:	f7ff7f13          	andi	t5,t5,-129
   12156:	2f01                	sext.w	t5,t5
   12158:	ea0a89e3          	beqz	s5,1200a <_vfprintf_r+0x9f0>
   1215c:	ec3a                	sd	a4,24(sp)
   1215e:	b535                	j	11f8a <_vfprintf_r+0x970>
   12160:	02096f13          	ori	t5,s2,32
   12164:	000bce03          	lbu	t3,0(s7)
   12168:	000f091b          	sext.w	s2,t5
   1216c:	dcaff06f          	j	11736 <_vfprintf_r+0x11c>
   12170:	66e2                	ld	a3,24(sp)
   12172:	67a1                	lui	a5,0x8
   12174:	83078793          	addi	a5,a5,-2000 # 7830 <exit-0x88f0>
   12178:	6298                	ld	a4,0(a3)
   1217a:	0af11023          	sh	a5,160(sp)
   1217e:	08010fa3          	sb	zero,159(sp)
   12182:	f03a                	sd	a4,32(sp)
   12184:	835a                	mv	t1,s6
   12186:	00868793          	addi	a5,a3,8
   1218a:	620b4663          	bltz	s6,127b6 <_vfprintf_r+0x119c>
   1218e:	f7f97693          	andi	a3,s2,-129
   12192:	2681                	sext.w	a3,a3
   12194:	0026e513          	ori	a0,a3,2
   12198:	200716e3          	bnez	a4,12ba4 <_vfprintf_r+0x158a>
   1219c:	5c0b18e3          	bnez	s6,12f6c <_vfprintf_r+0x1952>
   121a0:	7b0e                	ld	s6,224(sp)
   121a2:	45ee                	lw	a1,216(sp)
   121a4:	00497713          	andi	a4,s2,4
   121a8:	f83a                	sd	a4,48(sp)
   121aa:	865a                	mv	a2,s6
   121ac:	86ae                	mv	a3,a1
   121ae:	7e070063          	beqz	a4,1298e <_vfprintf_r+0x1374>
   121b2:	ec3e                	sd	a5,24(sp)
   121b4:	8f2a                	mv	t5,a0
   121b6:	4a81                	li	s5,0
   121b8:	fc02                	sd	zero,56(sp)
   121ba:	f802                	sd	zero,48(sp)
   121bc:	4c01                	li	s8,0
   121be:	4d09                	li	s10,2
   121c0:	14c10d93          	addi	s11,sp,332
   121c4:	07800e13          	li	t3,120
   121c8:	4911                	li	s2,4
   121ca:	e16ff06f          	j	117e0 <_vfprintf_r+0x1c6>
   121ce:	67e2                	ld	a5,24(sp)
   121d0:	02097713          	andi	a4,s2,32
   121d4:	8f4a                	mv	t5,s2
   121d6:	835a                	mv	t1,s6
   121d8:	07a1                	addi	a5,a5,8
   121da:	50071763          	bnez	a4,126e8 <_vfprintf_r+0x10ce>
   121de:	01097713          	andi	a4,s2,16
   121e2:	50071363          	bnez	a4,126e8 <_vfprintf_r+0x10ce>
   121e6:	6762                	ld	a4,24(sp)
   121e8:	04097693          	andi	a3,s2,64
   121ec:	4318                	lw	a4,0(a4)
   121ee:	2a0688e3          	beqz	a3,12c9e <_vfprintf_r+0x1684>
   121f2:	1742                	slli	a4,a4,0x30
   121f4:	9341                	srli	a4,a4,0x30
   121f6:	ec3e                	sd	a5,24(sp)
   121f8:	884a                	mv	a6,s2
   121fa:	b535                	j	12026 <_vfprintf_r+0xa0c>
   121fc:	00896f13          	ori	t5,s2,8
   12200:	000bce03          	lbu	t3,0(s7)
   12204:	000f091b          	sext.w	s2,t5
   12208:	d2eff06f          	j	11736 <_vfprintf_r+0x11c>
   1220c:	6c02                	ld	s8,0(sp)
   1220e:	8562                	mv	a0,s8
   12210:	008020ef          	jal	14218 <_localeconv_r>
   12214:	651c                	ld	a5,8(a0)
   12216:	853e                	mv	a0,a5
   12218:	f0be                	sd	a5,96(sp)
   1221a:	94ffe0ef          	jal	10b68 <strlen>
   1221e:	87aa                	mv	a5,a0
   12220:	8562                	mv	a0,s8
   12222:	f8be                	sd	a5,112(sp)
   12224:	8c3e                	mv	s8,a5
   12226:	7f3010ef          	jal	14218 <_localeconv_r>
   1222a:	691c                	ld	a5,16(a0)
   1222c:	000bce03          	lbu	t3,0(s7)
   12230:	f4be                	sd	a5,104(sp)
   12232:	d00c0263          	beqz	s8,11736 <_vfprintf_r+0x11c>
   12236:	d0078063          	beqz	a5,11736 <_vfprintf_r+0x11c>
   1223a:	0007c783          	lbu	a5,0(a5)
   1223e:	ce078c63          	beqz	a5,11736 <_vfprintf_r+0x11c>
   12242:	40096f13          	ori	t5,s2,1024
   12246:	000f091b          	sext.w	s2,t5
   1224a:	cecff06f          	j	11736 <_vfprintf_r+0x11c>
   1224e:	00196f13          	ori	t5,s2,1
   12252:	000bce03          	lbu	t3,0(s7)
   12256:	000f091b          	sext.w	s2,t5
   1225a:	cdcff06f          	j	11736 <_vfprintf_r+0x11c>
   1225e:	09f14783          	lbu	a5,159(sp)
   12262:	000bce03          	lbu	t3,0(s7)
   12266:	cc079863          	bnez	a5,11736 <_vfprintf_r+0x11c>
   1226a:	02000793          	li	a5,32
   1226e:	08f10fa3          	sb	a5,159(sp)
   12272:	cc4ff06f          	j	11736 <_vfprintf_r+0x11c>
   12276:	08096f13          	ori	t5,s2,128
   1227a:	000bce03          	lbu	t3,0(s7)
   1227e:	000f091b          	sext.w	s2,t5
   12282:	cb4ff06f          	j	11736 <_vfprintf_r+0x11c>
   12286:	02b00793          	li	a5,43
   1228a:	000bce03          	lbu	t3,0(s7)
   1228e:	08f10fa3          	sb	a5,159(sp)
   12292:	ca4ff06f          	j	11736 <_vfprintf_r+0x11c>
   12296:	000bce03          	lbu	t3,0(s7)
   1229a:	02a00793          	li	a5,42
   1229e:	001b8613          	addi	a2,s7,1
   122a2:	00fe1463          	bne	t3,a5,122aa <_vfprintf_r+0xc90>
   122a6:	3aa0106f          	j	13650 <_vfprintf_r+0x2036>
   122aa:	fd0e071b          	addiw	a4,t3,-48
   122ae:	45a5                	li	a1,9
   122b0:	4681                	li	a3,0
   122b2:	8bb2                	mv	s7,a2
   122b4:	4b01                	li	s6,0
   122b6:	c8e5e263          	bltu	a1,a4,1173a <_vfprintf_r+0x120>
   122ba:	0026979b          	slliw	a5,a3,0x2
   122be:	00064e03          	lbu	t3,0(a2)
   122c2:	9fb5                	addw	a5,a5,a3
   122c4:	0017979b          	slliw	a5,a5,0x1
   122c8:	00e786bb          	addw	a3,a5,a4
   122cc:	fd0e071b          	addiw	a4,t3,-48
   122d0:	0605                	addi	a2,a2,1
   122d2:	fee5f4e3          	bgeu	a1,a4,122ba <_vfprintf_r+0xca0>
   122d6:	8336                	mv	t1,a3
   122d8:	5406ca63          	bltz	a3,1282c <_vfprintf_r+0x1212>
   122dc:	00030b1b          	sext.w	s6,t1
   122e0:	8bb2                	mv	s7,a2
   122e2:	c58ff06f          	j	1173a <_vfprintf_r+0x120>
   122e6:	41ac86bb          	subw	a3,s9,s10
   122ea:	d0d05d63          	blez	a3,11804 <_vfprintf_r+0x1ea>
   122ee:	6769                	lui	a4,0x1a
   122f0:	4fc1                	li	t6,16
   122f2:	466e                	lw	a2,216(sp)
   122f4:	bf870913          	addi	s2,a4,-1032 # 19bf8 <zeroes.0>
   122f8:	06dfd263          	bge	t6,a3,1235c <_vfprintf_r+0xd42>
   122fc:	87ce                	mv	a5,s3
   122fe:	875a                	mv	a4,s6
   12300:	89ca                	mv	s3,s2
   12302:	8b56                	mv	s6,s5
   12304:	83fe                	mv	t2,t6
   12306:	429d                	li	t0,7
   12308:	e8f2                	sd	t3,80(sp)
   1230a:	fcfa                	sd	t5,120(sp)
   1230c:	8a9a                	mv	s5,t1
   1230e:	8936                	mv	s2,a3
   12310:	a021                	j	12318 <_vfprintf_r+0xcfe>
   12312:	3941                	addiw	s2,s2,-16
   12314:	0323dc63          	bge	t2,s2,1234c <_vfprintf_r+0xd32>
   12318:	0741                	addi	a4,a4,16
   1231a:	2605                	addiw	a2,a2,1
   1231c:	0137b023          	sd	s3,0(a5)
   12320:	01f7b423          	sd	t6,8(a5)
   12324:	f1ba                	sd	a4,224(sp)
   12326:	cdb2                	sw	a2,216(sp)
   12328:	07c1                	addi	a5,a5,16
   1232a:	fec2d4e3          	bge	t0,a2,12312 <_vfprintf_r+0xcf8>
   1232e:	65a2                	ld	a1,8(sp)
   12330:	6502                	ld	a0,0(sp)
   12332:	0990                	addi	a2,sp,208
   12334:	472010ef          	jal	137a6 <__sprint_r>
   12338:	e52d                	bnez	a0,123a2 <_vfprintf_r+0xd88>
   1233a:	43c1                	li	t2,16
   1233c:	3941                	addiw	s2,s2,-16
   1233e:	770e                	ld	a4,224(sp)
   12340:	466e                	lw	a2,216(sp)
   12342:	87d2                	mv	a5,s4
   12344:	429d                	li	t0,7
   12346:	8f9e                	mv	t6,t2
   12348:	fd23c8e3          	blt	t2,s2,12318 <_vfprintf_r+0xcfe>
   1234c:	6e46                	ld	t3,80(sp)
   1234e:	7f66                	ld	t5,120(sp)
   12350:	86ca                	mv	a3,s2
   12352:	8356                	mv	t1,s5
   12354:	894e                	mv	s2,s3
   12356:	8ada                	mv	s5,s6
   12358:	89be                	mv	s3,a5
   1235a:	8b3a                	mv	s6,a4
   1235c:	9b36                	add	s6,s6,a3
   1235e:	2605                	addiw	a2,a2,1
   12360:	0129b023          	sd	s2,0(s3)
   12364:	00d9b423          	sd	a3,8(s3)
   12368:	f1da                	sd	s6,224(sp)
   1236a:	cdb2                	sw	a2,216(sp)
   1236c:	471d                	li	a4,7
   1236e:	09c1                	addi	s3,s3,16
   12370:	c8c75a63          	bge	a4,a2,11804 <_vfprintf_r+0x1ea>
   12374:	65a2                	ld	a1,8(sp)
   12376:	6502                	ld	a0,0(sp)
   12378:	0990                	addi	a2,sp,208
   1237a:	e11a                	sd	t1,128(sp)
   1237c:	fcfa                	sd	t5,120(sp)
   1237e:	e8f2                	sd	t3,80(sp)
   12380:	426010ef          	jal	137a6 <__sprint_r>
   12384:	ed19                	bnez	a0,123a2 <_vfprintf_r+0xd88>
   12386:	7b0e                	ld	s6,224(sp)
   12388:	6e46                	ld	t3,80(sp)
   1238a:	7f66                	ld	t5,120(sp)
   1238c:	630a                	ld	t1,128(sp)
   1238e:	89d2                	mv	s3,s4
   12390:	c74ff06f          	j	11804 <_vfprintf_r+0x1ea>
   12394:	65a2                	ld	a1,8(sp)
   12396:	6502                	ld	a0,0(sp)
   12398:	0990                	addi	a2,sp,208
   1239a:	40c010ef          	jal	137a6 <__sprint_r>
   1239e:	ca050963          	beqz	a0,11850 <_vfprintf_r+0x236>
   123a2:	6922                	ld	s2,8(sp)
   123a4:	7582                	ld	a1,32(sp)
   123a6:	c581                	beqz	a1,123ae <_vfprintf_r+0xd94>
   123a8:	6502                	ld	a0,0(sp)
   123aa:	9fffe0ef          	jal	10da8 <_free_r>
   123ae:	01095783          	lhu	a5,16(s2)
   123b2:	22813483          	ld	s1,552(sp)
   123b6:	21813983          	ld	s3,536(sp)
   123ba:	0407f793          	andi	a5,a5,64
   123be:	21013a03          	ld	s4,528(sp)
   123c2:	20013b03          	ld	s6,512(sp)
   123c6:	7bfe                	ld	s7,504(sp)
   123c8:	7c5e                	ld	s8,496(sp)
   123ca:	7cbe                	ld	s9,488(sp)
   123cc:	7d1e                	ld	s10,480(sp)
   123ce:	6dfe                	ld	s11,472(sp)
   123d0:	d0079c63          	bnez	a5,118e8 <_vfprintf_r+0x2ce>
   123d4:	23813083          	ld	ra,568(sp)
   123d8:	23013403          	ld	s0,560(sp)
   123dc:	6542                	ld	a0,16(sp)
   123de:	22013903          	ld	s2,544(sp)
   123e2:	20813a83          	ld	s5,520(sp)
   123e6:	24010113          	addi	sp,sp,576
   123ea:	8082                	ret
   123ec:	65a2                	ld	a1,8(sp)
   123ee:	6502                	ld	a0,0(sp)
   123f0:	0990                	addi	a2,sp,208
   123f2:	e11a                	sd	t1,128(sp)
   123f4:	fcfa                	sd	t5,120(sp)
   123f6:	e8f2                	sd	t3,80(sp)
   123f8:	3ae010ef          	jal	137a6 <__sprint_r>
   123fc:	f15d                	bnez	a0,123a2 <_vfprintf_r+0xd88>
   123fe:	7b0e                	ld	s6,224(sp)
   12400:	630a                	ld	t1,128(sp)
   12402:	7f66                	ld	t5,120(sp)
   12404:	6e46                	ld	t3,80(sp)
   12406:	89d2                	mv	s3,s4
   12408:	bf4ff06f          	j	117fc <_vfprintf_r+0x1e2>
   1240c:	66e9                	lui	a3,0x1a
   1240e:	4741                	li	a4,16
   12410:	47ee                	lw	a5,216(sp)
   12412:	c0868693          	addi	a3,a3,-1016 # 19c08 <blanks.1>
   12416:	05575463          	bge	a4,s5,1245e <_vfprintf_r+0xe44>
   1241a:	8956                	mv	s2,s5
   1241c:	8dba                	mv	s11,a4
   1241e:	4c1d                	li	s8,7
   12420:	8ab6                	mv	s5,a3
   12422:	a021                	j	1242a <_vfprintf_r+0xe10>
   12424:	3941                	addiw	s2,s2,-16
   12426:	032dda63          	bge	s11,s2,1245a <_vfprintf_r+0xe40>
   1242a:	0b41                	addi	s6,s6,16
   1242c:	2785                	addiw	a5,a5,1
   1242e:	0159b023          	sd	s5,0(s3)
   12432:	00e9b423          	sd	a4,8(s3)
   12436:	f1da                	sd	s6,224(sp)
   12438:	cdbe                	sw	a5,216(sp)
   1243a:	09c1                	addi	s3,s3,16
   1243c:	fefc54e3          	bge	s8,a5,12424 <_vfprintf_r+0xe0a>
   12440:	65a2                	ld	a1,8(sp)
   12442:	6502                	ld	a0,0(sp)
   12444:	0990                	addi	a2,sp,208
   12446:	360010ef          	jal	137a6 <__sprint_r>
   1244a:	fd21                	bnez	a0,123a2 <_vfprintf_r+0xd88>
   1244c:	3941                	addiw	s2,s2,-16
   1244e:	7b0e                	ld	s6,224(sp)
   12450:	47ee                	lw	a5,216(sp)
   12452:	89d2                	mv	s3,s4
   12454:	4741                	li	a4,16
   12456:	fd2dcae3          	blt	s11,s2,1242a <_vfprintf_r+0xe10>
   1245a:	86d6                	mv	a3,s5
   1245c:	8aca                	mv	s5,s2
   1245e:	9b56                	add	s6,s6,s5
   12460:	2785                	addiw	a5,a5,1
   12462:	f1da                	sd	s6,224(sp)
   12464:	cdbe                	sw	a5,216(sp)
   12466:	00d9b023          	sd	a3,0(s3)
   1246a:	0159b423          	sd	s5,8(s3)
   1246e:	471d                	li	a4,7
   12470:	bcf75763          	bge	a4,a5,1183e <_vfprintf_r+0x224>
   12474:	65a2                	ld	a1,8(sp)
   12476:	6502                	ld	a0,0(sp)
   12478:	0990                	addi	a2,sp,208
   1247a:	32c010ef          	jal	137a6 <__sprint_r>
   1247e:	f115                	bnez	a0,123a2 <_vfprintf_r+0xd88>
   12480:	7b0e                	ld	s6,224(sp)
   12482:	bbcff06f          	j	1183e <_vfprintf_r+0x224>
   12486:	562a                	lw	a2,168(sp)
   12488:	5ec05363          	blez	a2,12a6e <_vfprintf_r+0x1454>
   1248c:	77a2                	ld	a5,40(sp)
   1248e:	8762                	mv	a4,s8
   12490:	3987c863          	blt	a5,s8,12820 <_vfprintf_r+0x1206>
   12494:	0007091b          	sext.w	s2,a4
   12498:	01205f63          	blez	s2,124b6 <_vfprintf_r+0xe9c>
   1249c:	46ee                	lw	a3,216(sp)
   1249e:	9b4a                	add	s6,s6,s2
   124a0:	01b9b023          	sd	s11,0(s3)
   124a4:	2685                	addiw	a3,a3,1
   124a6:	0129b423          	sd	s2,8(s3)
   124aa:	f1da                	sd	s6,224(sp)
   124ac:	cdb6                	sw	a3,216(sp)
   124ae:	461d                	li	a2,7
   124b0:	09c1                	addi	s3,s3,16
   124b2:	28d64ae3          	blt	a2,a3,12f46 <_vfprintf_r+0x192c>
   124b6:	86ca                	mv	a3,s2
   124b8:	42094263          	bltz	s2,128dc <_vfprintf_r+0x12c2>
   124bc:	40dc0abb          	subw	s5,s8,a3
   124c0:	43504d63          	bgtz	s5,128fa <_vfprintf_r+0x12e0>
   124c4:	400f7713          	andi	a4,t5,1024
   124c8:	018d8933          	add	s2,s11,s8
   124cc:	0c0710e3          	bnez	a4,12d8c <_vfprintf_r+0x1772>
   124d0:	5aaa                	lw	s5,168(sp)
   124d2:	77a2                	ld	a5,40(sp)
   124d4:	00fac663          	blt	s5,a5,124e0 <_vfprintf_r+0xec6>
   124d8:	001f7713          	andi	a4,t5,1
   124dc:	2a070ae3          	beqz	a4,12f90 <_vfprintf_r+0x1976>
   124e0:	476e                	lw	a4,216(sp)
   124e2:	6786                	ld	a5,64(sp)
   124e4:	66a6                	ld	a3,72(sp)
   124e6:	2705                	addiw	a4,a4,1
   124e8:	9b3e                	add	s6,s6,a5
   124ea:	00d9b023          	sd	a3,0(s3)
   124ee:	00f9b423          	sd	a5,8(s3)
   124f2:	f1da                	sd	s6,224(sp)
   124f4:	cdba                	sw	a4,216(sp)
   124f6:	469d                	li	a3,7
   124f8:	09c1                	addi	s3,s3,16
   124fa:	58e6c0e3          	blt	a3,a4,1327a <_vfprintf_r+0x1c60>
   124fe:	7722                	ld	a4,40(sp)
   12500:	00ed87b3          	add	a5,s11,a4
   12504:	412787b3          	sub	a5,a5,s2
   12508:	4157073b          	subw	a4,a4,s5
   1250c:	0007869b          	sext.w	a3,a5
   12510:	00d75363          	bge	a4,a3,12516 <_vfprintf_r+0xefc>
   12514:	87ba                	mv	a5,a4
   12516:	00078a9b          	sext.w	s5,a5
   1251a:	01505f63          	blez	s5,12538 <_vfprintf_r+0xf1e>
   1251e:	47ee                	lw	a5,216(sp)
   12520:	9b56                	add	s6,s6,s5
   12522:	0129b023          	sd	s2,0(s3)
   12526:	2785                	addiw	a5,a5,1
   12528:	0159b423          	sd	s5,8(s3)
   1252c:	f1da                	sd	s6,224(sp)
   1252e:	cdbe                	sw	a5,216(sp)
   12530:	469d                	li	a3,7
   12532:	09c1                	addi	s3,s3,16
   12534:	5af6cce3          	blt	a3,a5,132ec <_vfprintf_r+0x1cd2>
   12538:	87d6                	mv	a5,s5
   1253a:	000ad363          	bgez	s5,12540 <_vfprintf_r+0xf26>
   1253e:	4781                	li	a5,0
   12540:	40f70abb          	subw	s5,a4,a5
   12544:	af505563          	blez	s5,1182e <_vfprintf_r+0x214>
   12548:	6769                	lui	a4,0x1a
   1254a:	46c1                	li	a3,16
   1254c:	47ee                	lw	a5,216(sp)
   1254e:	bf870913          	addi	s2,a4,-1032 # 19bf8 <zeroes.0>
   12552:	5f56dc63          	bge	a3,s5,12b4a <_vfprintf_r+0x1530>
   12556:	8c4a                	mv	s8,s2
   12558:	8336                	mv	t1,a3
   1255a:	8956                	mv	s2,s5
   1255c:	4d9d                	li	s11,7
   1255e:	8afa                	mv	s5,t5
   12560:	a021                	j	12568 <_vfprintf_r+0xf4e>
   12562:	3941                	addiw	s2,s2,-16
   12564:	5f235063          	bge	t1,s2,12b44 <_vfprintf_r+0x152a>
   12568:	0b41                	addi	s6,s6,16
   1256a:	2785                	addiw	a5,a5,1
   1256c:	0189b023          	sd	s8,0(s3)
   12570:	00d9b423          	sd	a3,8(s3)
   12574:	f1da                	sd	s6,224(sp)
   12576:	cdbe                	sw	a5,216(sp)
   12578:	09c1                	addi	s3,s3,16
   1257a:	fefdd4e3          	bge	s11,a5,12562 <_vfprintf_r+0xf48>
   1257e:	65a2                	ld	a1,8(sp)
   12580:	6502                	ld	a0,0(sp)
   12582:	0990                	addi	a2,sp,208
   12584:	222010ef          	jal	137a6 <__sprint_r>
   12588:	e0051de3          	bnez	a0,123a2 <_vfprintf_r+0xd88>
   1258c:	4341                	li	t1,16
   1258e:	7b0e                	ld	s6,224(sp)
   12590:	47ee                	lw	a5,216(sp)
   12592:	89d2                	mv	s3,s4
   12594:	869a                	mv	a3,t1
   12596:	b7f1                	j	12562 <_vfprintf_r+0xf48>
   12598:	46ee                	lw	a3,216(sp)
   1259a:	85b6                	mv	a1,a3
   1259c:	4b41                	li	s6,16
   1259e:	66e9                	lui	a3,0x1a
   125a0:	c0868693          	addi	a3,a3,-1016 # 19c08 <blanks.1>
   125a4:	06eb5063          	bge	s6,a4,12604 <_vfprintf_r+0xfea>
   125a8:	87ce                	mv	a5,s3
   125aa:	e8ca                	sd	s2,80(sp)
   125ac:	83da                	mv	t2,s6
   125ae:	429d                	li	t0,7
   125b0:	893a                	mv	s2,a4
   125b2:	fcf2                	sd	t3,120(sp)
   125b4:	e17a                	sd	t5,128(sp)
   125b6:	e51a                	sd	t1,136(sp)
   125b8:	89b6                	mv	s3,a3
   125ba:	a021                	j	125c2 <_vfprintf_r+0xfa8>
   125bc:	3941                	addiw	s2,s2,-16
   125be:	0323dc63          	bge	t2,s2,125f6 <_vfprintf_r+0xfdc>
   125c2:	0641                	addi	a2,a2,16
   125c4:	2585                	addiw	a1,a1,1
   125c6:	0137b023          	sd	s3,0(a5)
   125ca:	0167b423          	sd	s6,8(a5)
   125ce:	f1b2                	sd	a2,224(sp)
   125d0:	cdae                	sw	a1,216(sp)
   125d2:	07c1                	addi	a5,a5,16
   125d4:	feb2d4e3          	bge	t0,a1,125bc <_vfprintf_r+0xfa2>
   125d8:	65a2                	ld	a1,8(sp)
   125da:	6502                	ld	a0,0(sp)
   125dc:	0990                	addi	a2,sp,208
   125de:	1c8010ef          	jal	137a6 <__sprint_r>
   125e2:	dc0510e3          	bnez	a0,123a2 <_vfprintf_r+0xd88>
   125e6:	43c1                	li	t2,16
   125e8:	3941                	addiw	s2,s2,-16
   125ea:	760e                	ld	a2,224(sp)
   125ec:	45ee                	lw	a1,216(sp)
   125ee:	87d2                	mv	a5,s4
   125f0:	429d                	li	t0,7
   125f2:	fd23c8e3          	blt	t2,s2,125c2 <_vfprintf_r+0xfa8>
   125f6:	874a                	mv	a4,s2
   125f8:	7e66                	ld	t3,120(sp)
   125fa:	6946                	ld	s2,80(sp)
   125fc:	6f0a                	ld	t5,128(sp)
   125fe:	632a                	ld	t1,136(sp)
   12600:	86ce                	mv	a3,s3
   12602:	89be                	mv	s3,a5
   12604:	00c70b33          	add	s6,a4,a2
   12608:	2585                	addiw	a1,a1,1
   1260a:	00e9b423          	sd	a4,8(s3)
   1260e:	f1da                	sd	s6,224(sp)
   12610:	cdae                	sw	a1,216(sp)
   12612:	00d9b023          	sd	a3,0(s3)
   12616:	471d                	li	a4,7
   12618:	4ab74663          	blt	a4,a1,12ac4 <_vfprintf_r+0x14aa>
   1261c:	09f14703          	lbu	a4,159(sp)
   12620:	09c1                	addi	s3,s3,16
   12622:	eb55                	bnez	a4,126d6 <_vfprintf_r+0x10bc>
   12624:	9e090063          	beqz	s2,11804 <_vfprintf_r+0x1ea>
   12628:	4901                	li	s2,0
   1262a:	9b6ff06f          	j	117e0 <_vfprintf_r+0x1c6>
   1262e:	00df7633          	and	a2,t5,a3
   12632:	e2061d63          	bnez	a2,11c6c <_vfprintf_r+0x652>
   12636:	01b9b023          	sd	s11,0(s3)
   1263a:	00d9b423          	sd	a3,8(s3)
   1263e:	f1da                	sd	s6,224(sp)
   12640:	cdd6                	sw	s5,216(sp)
   12642:	479d                	li	a5,7
   12644:	e957d963          	bge	a5,s5,11cd6 <_vfprintf_r+0x6bc>
   12648:	65a2                	ld	a1,8(sp)
   1264a:	6502                	ld	a0,0(sp)
   1264c:	0990                	addi	a2,sp,208
   1264e:	f87a                	sd	t5,48(sp)
   12650:	156010ef          	jal	137a6 <__sprint_r>
   12654:	d40517e3          	bnez	a0,123a2 <_vfprintf_r+0xd88>
   12658:	7b0e                	ld	s6,224(sp)
   1265a:	4aee                	lw	s5,216(sp)
   1265c:	7f42                	ld	t5,48(sp)
   1265e:	88d2                	mv	a7,s4
   12660:	e76ff06f          	j	11cd6 <_vfprintf_r+0x6bc>
   12664:	7722                	ld	a4,40(sp)
   12666:	4785                	li	a5,1
   12668:	e6e7d763          	bge	a5,a4,11cd6 <_vfprintf_r+0x6bc>
   1266c:	47c5                	li	a5,17
   1266e:	00e7c463          	blt	a5,a4,12676 <_vfprintf_r+0x105c>
   12672:	79b0006f          	j	1360c <_vfprintf_r+0x1ff2>
   12676:	6769                	lui	a4,0x1a
   12678:	bf870913          	addi	s2,a4,-1032 # 19bf8 <zeroes.0>
   1267c:	8c4a                	mv	s8,s2
   1267e:	47c1                	li	a5,16
   12680:	894e                	mv	s2,s3
   12682:	4d9d                	li	s11,7
   12684:	89fa                	mv	s3,t5
   12686:	a021                	j	1268e <_vfprintf_r+0x1074>
   12688:	3941                	addiw	s2,s2,-16
   1268a:	5b27da63          	bge	a5,s2,12c3e <_vfprintf_r+0x1624>
   1268e:	0b41                	addi	s6,s6,16
   12690:	2a85                	addiw	s5,s5,1
   12692:	0188b023          	sd	s8,0(a7)
   12696:	00f8b423          	sd	a5,8(a7)
   1269a:	f1da                	sd	s6,224(sp)
   1269c:	cdd6                	sw	s5,216(sp)
   1269e:	08c1                	addi	a7,a7,16
   126a0:	ff5dd4e3          	bge	s11,s5,12688 <_vfprintf_r+0x106e>
   126a4:	65a2                	ld	a1,8(sp)
   126a6:	6502                	ld	a0,0(sp)
   126a8:	0990                	addi	a2,sp,208
   126aa:	0fc010ef          	jal	137a6 <__sprint_r>
   126ae:	ce051ae3          	bnez	a0,123a2 <_vfprintf_r+0xd88>
   126b2:	7b0e                	ld	s6,224(sp)
   126b4:	4aee                	lw	s5,216(sp)
   126b6:	88d2                	mv	a7,s4
   126b8:	47c1                	li	a5,16
   126ba:	b7f9                	j	12688 <_vfprintf_r+0x106e>
   126bc:	8856                	mv	a6,s5
   126be:	b2e5                	j	120a6 <_vfprintf_r+0xa8c>
   126c0:	001f7793          	andi	a5,t5,1
   126c4:	96078563          	beqz	a5,1182e <_vfprintf_r+0x214>
   126c8:	fc0ff06f          	j	11e88 <_vfprintf_r+0x86e>
   126cc:	000bce03          	lbu	t3,0(s7)
   126d0:	ec3e                	sd	a5,24(sp)
   126d2:	864ff06f          	j	11736 <_vfprintf_r+0x11c>
   126d6:	874a                	mv	a4,s2
   126d8:	4901                	li	s2,0
   126da:	8e4ff06f          	j	117be <_vfprintf_r+0x1a4>
   126de:	67c2                	ld	a5,16(sp)
   126e0:	8dde                	mv	s11,s7
   126e2:	e31c                	sd	a5,0(a4)
   126e4:	97eff06f          	j	11862 <_vfprintf_r+0x248>
   126e8:	887a                	mv	a6,t5
   126ea:	ba1d                	j	12020 <_vfprintf_r+0xa06>
   126ec:	66e2                	ld	a3,24(sp)
   126ee:	08010fa3          	sb	zero,159(sp)
   126f2:	87fa                	mv	a5,t5
   126f4:	0006ba83          	ld	s5,0(a3)
   126f8:	00868713          	addi	a4,a3,8
   126fc:	900351e3          	bgez	t1,11ffe <_vfprintf_r+0x9e4>
   12700:	ec3a                	sd	a4,24(sp)
   12702:	4da5                	li	s11,9
   12704:	8f3e                	mv	t5,a5
   12706:	895df5e3          	bgeu	s11,s5,11f90 <_vfprintf_r+0x976>
   1270a:	ccccd7b7          	lui	a5,0xccccd
   1270e:	ccd78793          	addi	a5,a5,-819 # ffffffffcccccccd <__BSS_END__+0xffffffffcccb0a3d>
   12712:	02079b13          	slli	s6,a5,0x20
   12716:	14c10913          	addi	s2,sp,332
   1271a:	7c26                	ld	s8,104(sp)
   1271c:	886e                	mv	a6,s11
   1271e:	9b3e                	add	s6,s6,a5
   12720:	864a                	mv	a2,s2
   12722:	400f7f93          	andi	t6,t5,1024
   12726:	4681                	li	a3,0
   12728:	0ff00d13          	li	s10,255
   1272c:	a809                	j	1273e <_vfprintf_r+0x1124>
   1272e:	87d6                	mv	a5,s5
   12730:	036abab3          	mulhu	s5,s5,s6
   12734:	866e                	mv	a2,s11
   12736:	003ada93          	srli	s5,s5,0x3
   1273a:	02f87c63          	bgeu	a6,a5,12772 <_vfprintf_r+0x1158>
   1273e:	036ab733          	mulhu	a4,s5,s6
   12742:	2685                	addiw	a3,a3,1
   12744:	fff60d93          	addi	s11,a2,-1
   12748:	830d                	srli	a4,a4,0x3
   1274a:	00271793          	slli	a5,a4,0x2
   1274e:	97ba                	add	a5,a5,a4
   12750:	0786                	slli	a5,a5,0x1
   12752:	40fa87b3          	sub	a5,s5,a5
   12756:	0307879b          	addiw	a5,a5,48
   1275a:	fef60fa3          	sb	a5,-1(a2)
   1275e:	fc0f88e3          	beqz	t6,1272e <_vfprintf_r+0x1114>
   12762:	000c4783          	lbu	a5,0(s8)
   12766:	fcd794e3          	bne	a5,a3,1272e <_vfprintf_r+0x1114>
   1276a:	fda782e3          	beq	a5,s10,1272e <_vfprintf_r+0x1114>
   1276e:	5b586b63          	bltu	a6,s5,12d24 <_vfprintf_r+0x170a>
   12772:	f4e2                	sd	s8,104(sp)
   12774:	f436                	sd	a3,40(sp)
   12776:	41b90abb          	subw	s5,s2,s11
   1277a:	881a                	mv	a6,t1
   1277c:	01535363          	bge	t1,s5,12782 <_vfprintf_r+0x1168>
   12780:	8856                	mv	a6,s5
   12782:	09f14703          	lbu	a4,159(sp)
   12786:	00080d1b          	sext.w	s10,a6
   1278a:	829ff06f          	j	11fb2 <_vfprintf_r+0x998>
   1278e:	67e2                	ld	a5,24(sp)
   12790:	00f78693          	addi	a3,a5,15
   12794:	9ac1                	andi	a3,a3,-16
   12796:	01068793          	addi	a5,a3,16
   1279a:	6298                	ld	a4,0(a3)
   1279c:	668c                	ld	a1,8(a3)
   1279e:	ec3e                	sd	a5,24(sp)
   127a0:	978ff06f          	j	11918 <_vfprintf_r+0x2fe>
   127a4:	67e2                	ld	a5,24(sp)
   127a6:	07a1                	addi	a5,a5,8
   127a8:	6762                	ld	a4,24(sp)
   127aa:	8f36                	mv	t5,a3
   127ac:	ec3e                	sd	a5,24(sp)
   127ae:	6318                	ld	a4,0(a4)
   127b0:	8aba                	mv	s5,a4
   127b2:	f80ff06f          	j	11f32 <_vfprintf_r+0x918>
   127b6:	7602                	ld	a2,32(sp)
   127b8:	65e9                	lui	a1,0x1a
   127ba:	91858713          	addi	a4,a1,-1768 # 19918 <__clzdi2+0xec>
   127be:	00f67693          	andi	a3,a2,15
   127c2:	9736                	add	a4,a4,a3
   127c4:	00074683          	lbu	a3,0(a4)
   127c8:	00296f13          	ori	t5,s2,2
   127cc:	00465713          	srli	a4,a2,0x4
   127d0:	14d105a3          	sb	a3,331(sp)
   127d4:	ec3e                	sd	a5,24(sp)
   127d6:	2f01                	sext.w	t5,t5
   127d8:	6e0703e3          	beqz	a4,136be <_vfprintf_r+0x20a4>
   127dc:	91858593          	addi	a1,a1,-1768
   127e0:	4609                	li	a2,2
   127e2:	07800e13          	li	t3,120
   127e6:	14b10d93          	addi	s11,sp,331
   127ea:	00f77793          	andi	a5,a4,15
   127ee:	97ae                	add	a5,a5,a1
   127f0:	0007c783          	lbu	a5,0(a5)
   127f4:	8311                	srli	a4,a4,0x4
   127f6:	1dfd                	addi	s11,s11,-1
   127f8:	00fd8023          	sb	a5,0(s11)
   127fc:	f77d                	bnez	a4,127ea <_vfprintf_r+0x11d0>
   127fe:	14c10893          	addi	a7,sp,332
   12802:	41b88abb          	subw	s5,a7,s11
   12806:	881a                	mv	a6,t1
   12808:	01535363          	bge	t1,s5,1280e <_vfprintf_r+0x11f4>
   1280c:	8856                	mv	a6,s5
   1280e:	00080d1b          	sext.w	s10,a6
   12812:	f002                	sd	zero,32(sp)
   12814:	fc02                	sd	zero,56(sp)
   12816:	f802                	sd	zero,48(sp)
   12818:	4c01                	li	s8,0
   1281a:	4501                	li	a0,0
   1281c:	bfaff06f          	j	11c16 <_vfprintf_r+0x5fc>
   12820:	873e                	mv	a4,a5
   12822:	0007091b          	sext.w	s2,a4
   12826:	c7204be3          	bgtz	s2,1249c <_vfprintf_r+0xe82>
   1282a:	b171                	j	124b6 <_vfprintf_r+0xe9c>
   1282c:	537d                	li	t1,-1
   1282e:	b47d                	j	122dc <_vfprintf_r+0xcc2>
   12830:	65e9                	lui	a1,0x1a
   12832:	8f4a                	mv	t5,s2
   12834:	835a                	mv	t1,s6
   12836:	93058593          	addi	a1,a1,-1744 # 19930 <__clzdi2+0x104>
   1283a:	66e2                	ld	a3,24(sp)
   1283c:	020f7713          	andi	a4,t5,32
   12840:	00868793          	addi	a5,a3,8
   12844:	1a070b63          	beqz	a4,129fa <_vfprintf_r+0x13e0>
   12848:	6298                	ld	a4,0(a3)
   1284a:	001f7693          	andi	a3,t5,1
   1284e:	16068863          	beqz	a3,129be <_vfprintf_r+0x13a4>
   12852:	2a070f63          	beqz	a4,12b10 <_vfprintf_r+0x14f6>
   12856:	03000693          	li	a3,48
   1285a:	0bc100a3          	sb	t3,161(sp)
   1285e:	08010fa3          	sb	zero,159(sp)
   12862:	0ad10023          	sb	a3,160(sp)
   12866:	1c034d63          	bltz	t1,12a40 <_vfprintf_r+0x1426>
   1286a:	b7ff7f13          	andi	t5,t5,-1153
   1286e:	2f01                	sext.w	t5,t5
   12870:	002f6f13          	ori	t5,t5,2
   12874:	00f77693          	andi	a3,a4,15
   12878:	96ae                	add	a3,a3,a1
   1287a:	0006c683          	lbu	a3,0(a3)
   1287e:	002f7613          	andi	a2,t5,2
   12882:	ec3e                	sd	a5,24(sp)
   12884:	14d105a3          	sb	a3,331(sp)
   12888:	8311                	srli	a4,a4,0x4
   1288a:	ff31                	bnez	a4,127e6 <_vfprintf_r+0x11cc>
   1288c:	14b10d93          	addi	s11,sp,331
   12890:	b7bd                	j	127fe <_vfprintf_r+0x11e4>
   12892:	65e9                	lui	a1,0x1a
   12894:	8f4a                	mv	t5,s2
   12896:	835a                	mv	t1,s6
   12898:	91858593          	addi	a1,a1,-1768 # 19918 <__clzdi2+0xec>
   1289c:	bf79                	j	1283a <_vfprintf_r+0x1220>
   1289e:	65a2                	ld	a1,8(sp)
   128a0:	6502                	ld	a0,0(sp)
   128a2:	0990                	addi	a2,sp,208
   128a4:	f87a                	sd	t5,48(sp)
   128a6:	701000ef          	jal	137a6 <__sprint_r>
   128aa:	ae051ce3          	bnez	a0,123a2 <_vfprintf_r+0xd88>
   128ae:	7b0e                	ld	s6,224(sp)
   128b0:	7f42                	ld	t5,48(sp)
   128b2:	89d2                	mv	s3,s4
   128b4:	df2ff06f          	j	11ea6 <_vfprintf_r+0x88c>
   128b8:	02096f13          	ori	t5,s2,32
   128bc:	001bce03          	lbu	t3,1(s7)
   128c0:	000f091b          	sext.w	s2,t5
   128c4:	0b85                	addi	s7,s7,1
   128c6:	e71fe06f          	j	11736 <_vfprintf_r+0x11c>
   128ca:	20096f13          	ori	t5,s2,512
   128ce:	001bce03          	lbu	t3,1(s7)
   128d2:	000f091b          	sext.w	s2,t5
   128d6:	0b85                	addi	s7,s7,1
   128d8:	e5ffe06f          	j	11736 <_vfprintf_r+0x11c>
   128dc:	4681                	li	a3,0
   128de:	bef9                	j	124bc <_vfprintf_r+0xea2>
   128e0:	4799                	li	a5,6
   128e2:	885a                	mv	a6,s6
   128e4:	6967e263          	bltu	a5,s6,12f68 <_vfprintf_r+0x194e>
   128e8:	00080d1b          	sext.w	s10,a6
   128ec:	67e9                	lui	a5,0x1a
   128ee:	ec4a                	sd	s2,24(sp)
   128f0:	8aea                	mv	s5,s10
   128f2:	94878d93          	addi	s11,a5,-1720 # 19948 <__clzdi2+0x11c>
   128f6:	c82ff06f          	j	11d78 <_vfprintf_r+0x75e>
   128fa:	6769                	lui	a4,0x1a
   128fc:	48c1                	li	a7,16
   128fe:	466e                	lw	a2,216(sp)
   12900:	bf870913          	addi	s2,a4,-1032 # 19bf8 <zeroes.0>
   12904:	3f58d763          	bge	a7,s5,12cf2 <_vfprintf_r+0x16d8>
   12908:	87ce                	mv	a5,s3
   1290a:	8e46                	mv	t3,a7
   1290c:	89ca                	mv	s3,s2
   1290e:	431d                	li	t1,7
   12910:	8956                	mv	s2,s5
   12912:	8afa                	mv	s5,t5
   12914:	a021                	j	1291c <_vfprintf_r+0x1302>
   12916:	3941                	addiw	s2,s2,-16
   12918:	3d2e5963          	bge	t3,s2,12cea <_vfprintf_r+0x16d0>
   1291c:	0b41                	addi	s6,s6,16
   1291e:	2605                	addiw	a2,a2,1
   12920:	0137b023          	sd	s3,0(a5)
   12924:	0117b423          	sd	a7,8(a5)
   12928:	f1da                	sd	s6,224(sp)
   1292a:	cdb2                	sw	a2,216(sp)
   1292c:	07c1                	addi	a5,a5,16
   1292e:	fec354e3          	bge	t1,a2,12916 <_vfprintf_r+0x12fc>
   12932:	65a2                	ld	a1,8(sp)
   12934:	6502                	ld	a0,0(sp)
   12936:	0990                	addi	a2,sp,208
   12938:	66f000ef          	jal	137a6 <__sprint_r>
   1293c:	a60513e3          	bnez	a0,123a2 <_vfprintf_r+0xd88>
   12940:	4e41                	li	t3,16
   12942:	7b0e                	ld	s6,224(sp)
   12944:	466e                	lw	a2,216(sp)
   12946:	87d2                	mv	a5,s4
   12948:	431d                	li	t1,7
   1294a:	88f2                	mv	a7,t3
   1294c:	b7e9                	j	12916 <_vfprintf_r+0x12fc>
   1294e:	07800793          	li	a5,120
   12952:	0af100a3          	sb	a5,161(sp)
   12956:	002f6793          	ori	a5,t5,2
   1295a:	03000713          	li	a4,48
   1295e:	2781                	sext.w	a5,a5
   12960:	0ae10023          	sb	a4,160(sp)
   12964:	f83e                	sd	a5,48(sp)
   12966:	06300713          	li	a4,99
   1296a:	6c674b63          	blt	a4,t1,13040 <_vfprintf_r+0x1a26>
   1296e:	678e                	ld	a5,192(sp)
   12970:	6aae                	ld	s5,200(sp)
   12972:	102f6f13          	ori	t5,t5,258
   12976:	2f01                	sext.w	t5,t5
   12978:	8c3e                	mv	s8,a5
   1297a:	2a0ac3e3          	bltz	s5,13420 <_vfprintf_r+0x1e06>
   1297e:	fbfe069b          	addiw	a3,t3,-65
   12982:	f002                	sd	zero,32(sp)
   12984:	0e810d93          	addi	s11,sp,232
   12988:	e882                	sd	zero,80(sp)
   1298a:	818ff06f          	j	119a2 <_vfprintf_r+0x388>
   1298e:	8f2a                	mv	t5,a0
   12990:	ec3e                	sd	a5,24(sp)
   12992:	4c01                	li	s8,0
   12994:	4a81                	li	s5,0
   12996:	fc02                	sd	zero,56(sp)
   12998:	4501                	li	a0,0
   1299a:	07800e13          	li	t3,120
   1299e:	14c10d93          	addi	s11,sp,332
   129a2:	4d09                	li	s10,2
   129a4:	41ac873b          	subw	a4,s9,s10
   129a8:	00e04963          	bgtz	a4,129ba <_vfprintf_r+0x13a0>
   129ac:	4901                	li	s2,0
   129ae:	e119                	bnez	a0,129b4 <_vfprintf_r+0x139a>
   129b0:	e31fe06f          	j	117e0 <_vfprintf_r+0x1c6>
   129b4:	4709                	li	a4,2
   129b6:	e09fe06f          	j	117be <_vfprintf_r+0x1a4>
   129ba:	4909                	li	s2,2
   129bc:	bef9                	j	1259a <_vfprintf_r+0xf80>
   129be:	08010fa3          	sb	zero,159(sp)
   129c2:	08034263          	bltz	t1,12a46 <_vfprintf_r+0x142c>
   129c6:	b7ff7f13          	andi	t5,t5,-1153
   129ca:	2f01                	sext.w	t5,t5
   129cc:	ea0714e3          	bnez	a4,12874 <_vfprintf_r+0x125a>
   129d0:	08030863          	beqz	t1,12a60 <_vfprintf_r+0x1446>
   129d4:	0005c703          	lbu	a4,0(a1)
   129d8:	881a                	mv	a6,t1
   129da:	14e105a3          	sb	a4,331(sp)
   129de:	5c605b63          	blez	t1,12fb4 <_vfprintf_r+0x199a>
   129e2:	00080d1b          	sext.w	s10,a6
   129e6:	ec3e                	sd	a5,24(sp)
   129e8:	f002                	sd	zero,32(sp)
   129ea:	4a85                	li	s5,1
   129ec:	fc02                	sd	zero,56(sp)
   129ee:	f802                	sd	zero,48(sp)
   129f0:	4c01                	li	s8,0
   129f2:	14b10d93          	addi	s11,sp,331
   129f6:	db3fe06f          	j	117a8 <_vfprintf_r+0x18e>
   129fa:	010f7713          	andi	a4,t5,16
   129fe:	10070063          	beqz	a4,12afe <_vfprintf_r+0x14e4>
   12a02:	6762                	ld	a4,24(sp)
   12a04:	6318                	ld	a4,0(a4)
   12a06:	b591                	j	1284a <_vfprintf_r+0x1230>
   12a08:	65a2                	ld	a1,8(sp)
   12a0a:	6502                	ld	a0,0(sp)
   12a0c:	0990                	addi	a2,sp,208
   12a0e:	f87a                	sd	t5,48(sp)
   12a10:	597000ef          	jal	137a6 <__sprint_r>
   12a14:	980517e3          	bnez	a0,123a2 <_vfprintf_r+0xd88>
   12a18:	7b0e                	ld	s6,224(sp)
   12a1a:	4aee                	lw	s5,216(sp)
   12a1c:	7f42                	ld	t5,48(sp)
   12a1e:	88d2                	mv	a7,s4
   12a20:	a60ff06f          	j	11c80 <_vfprintf_r+0x666>
   12a24:	65a2                	ld	a1,8(sp)
   12a26:	6502                	ld	a0,0(sp)
   12a28:	0990                	addi	a2,sp,208
   12a2a:	f87a                	sd	t5,48(sp)
   12a2c:	57b000ef          	jal	137a6 <__sprint_r>
   12a30:	960519e3          	bnez	a0,123a2 <_vfprintf_r+0xd88>
   12a34:	7b0e                	ld	s6,224(sp)
   12a36:	4aee                	lw	s5,216(sp)
   12a38:	7f42                	ld	t5,48(sp)
   12a3a:	88d2                	mv	a7,s4
   12a3c:	a60ff06f          	j	11c9c <_vfprintf_r+0x682>
   12a40:	002f6f13          	ori	t5,t5,2
   12a44:	2f01                	sext.w	t5,t5
   12a46:	00f77693          	andi	a3,a4,15
   12a4a:	96ae                	add	a3,a3,a1
   12a4c:	bfff7513          	andi	a0,t5,-1025
   12a50:	002f7613          	andi	a2,t5,2
   12a54:	0006c683          	lbu	a3,0(a3)
   12a58:	ec3e                	sd	a5,24(sp)
   12a5a:	00050f1b          	sext.w	t5,a0
   12a5e:	b51d                	j	12884 <_vfprintf_r+0x126a>
   12a60:	ec3e                	sd	a5,24(sp)
   12a62:	4a81                	li	s5,0
   12a64:	4d01                	li	s10,0
   12a66:	14c10d93          	addi	s11,sp,332
   12a6a:	e40ff06f          	j	120aa <_vfprintf_r+0xa90>
   12a6e:	476e                	lw	a4,216(sp)
   12a70:	66e9                	lui	a3,0x1a
   12a72:	95068693          	addi	a3,a3,-1712 # 19950 <__clzdi2+0x124>
   12a76:	0b05                	addi	s6,s6,1
   12a78:	2705                	addiw	a4,a4,1
   12a7a:	4585                	li	a1,1
   12a7c:	00d9b023          	sd	a3,0(s3)
   12a80:	00b9b423          	sd	a1,8(s3)
   12a84:	f1da                	sd	s6,224(sp)
   12a86:	cdba                	sw	a4,216(sp)
   12a88:	469d                	li	a3,7
   12a8a:	09c1                	addi	s3,s3,16
   12a8c:	48e6c963          	blt	a3,a4,12f1e <_vfprintf_r+0x1904>
   12a90:	12061963          	bnez	a2,12bc2 <_vfprintf_r+0x15a8>
   12a94:	77a2                	ld	a5,40(sp)
   12a96:	001f7713          	andi	a4,t5,1
   12a9a:	8f5d                	or	a4,a4,a5
   12a9c:	2701                	sext.w	a4,a4
   12a9e:	e319                	bnez	a4,12aa4 <_vfprintf_r+0x148a>
   12aa0:	d8ffe06f          	j	1182e <_vfprintf_r+0x214>
   12aa4:	46ee                	lw	a3,216(sp)
   12aa6:	6786                	ld	a5,64(sp)
   12aa8:	6726                	ld	a4,72(sp)
   12aaa:	2685                	addiw	a3,a3,1
   12aac:	9b3e                	add	s6,s6,a5
   12aae:	00e9b023          	sd	a4,0(s3)
   12ab2:	f1da                	sd	s6,224(sp)
   12ab4:	00f9b423          	sd	a5,8(s3)
   12ab8:	cdb6                	sw	a3,216(sp)
   12aba:	471d                	li	a4,7
   12abc:	56d74063          	blt	a4,a3,1301c <_vfprintf_r+0x1a02>
   12ac0:	09c1                	addi	s3,s3,16
   12ac2:	a20d                	j	12be4 <_vfprintf_r+0x15ca>
   12ac4:	65a2                	ld	a1,8(sp)
   12ac6:	6502                	ld	a0,0(sp)
   12ac8:	0990                	addi	a2,sp,208
   12aca:	e11a                	sd	t1,128(sp)
   12acc:	fcfa                	sd	t5,120(sp)
   12ace:	e8f2                	sd	t3,80(sp)
   12ad0:	4d7000ef          	jal	137a6 <__sprint_r>
   12ad4:	8c0517e3          	bnez	a0,123a2 <_vfprintf_r+0xd88>
   12ad8:	09f14703          	lbu	a4,159(sp)
   12adc:	7b0e                	ld	s6,224(sp)
   12ade:	6e46                	ld	t3,80(sp)
   12ae0:	7f66                	ld	t5,120(sp)
   12ae2:	630a                	ld	t1,128(sp)
   12ae4:	14070663          	beqz	a4,12c30 <_vfprintf_r+0x1616>
   12ae8:	874a                	mv	a4,s2
   12aea:	45ee                	lw	a1,216(sp)
   12aec:	4901                	li	s2,0
   12aee:	89d2                	mv	s3,s4
   12af0:	ccffe06f          	j	117be <_vfprintf_r+0x1a4>
   12af4:	4a81                	li	s5,0
   12af6:	14c10d93          	addi	s11,sp,332
   12afa:	db0ff06f          	j	120aa <_vfprintf_r+0xa90>
   12afe:	6762                	ld	a4,24(sp)
   12b00:	040f7693          	andi	a3,t5,64
   12b04:	4318                	lw	a4,0(a4)
   12b06:	18068563          	beqz	a3,12c90 <_vfprintf_r+0x1676>
   12b0a:	1742                	slli	a4,a4,0x30
   12b0c:	9341                	srli	a4,a4,0x30
   12b0e:	bb35                	j	1284a <_vfprintf_r+0x1230>
   12b10:	08010fa3          	sb	zero,159(sp)
   12b14:	3e034963          	bltz	t1,12f06 <_vfprintf_r+0x18ec>
   12b18:	b7ff7f13          	andi	t5,t5,-1153
   12b1c:	2f01                	sext.w	t5,t5
   12b1e:	bd4d                	j	129d0 <_vfprintf_r+0x13b6>
   12b20:	6502                	ld	a0,0(sp)
   12b22:	b3ffd0ef          	jal	10660 <__sinit>
   12b26:	b31fe06f          	j	11656 <_vfprintf_r+0x3c>
   12b2a:	65a2                	ld	a1,8(sp)
   12b2c:	6502                	ld	a0,0(sp)
   12b2e:	0990                	addi	a2,sp,208
   12b30:	f87a                	sd	t5,48(sp)
   12b32:	475000ef          	jal	137a6 <__sprint_r>
   12b36:	860516e3          	bnez	a0,123a2 <_vfprintf_r+0xd88>
   12b3a:	7b0e                	ld	s6,224(sp)
   12b3c:	7f42                	ld	t5,48(sp)
   12b3e:	89d2                	mv	s3,s4
   12b40:	b40ff06f          	j	11e80 <_vfprintf_r+0x866>
   12b44:	8f56                	mv	t5,s5
   12b46:	8aca                	mv	s5,s2
   12b48:	8962                	mv	s2,s8
   12b4a:	9b56                	add	s6,s6,s5
   12b4c:	2785                	addiw	a5,a5,1
   12b4e:	f1da                	sd	s6,224(sp)
   12b50:	cdbe                	sw	a5,216(sp)
   12b52:	0129b023          	sd	s2,0(s3)
   12b56:	0159b423          	sd	s5,8(s3)
   12b5a:	471d                	li	a4,7
   12b5c:	00f74463          	blt	a4,a5,12b64 <_vfprintf_r+0x154a>
   12b60:	ccdfe06f          	j	1182c <_vfprintf_r+0x212>
   12b64:	990ff06f          	j	11cf4 <_vfprintf_r+0x6da>
   12b68:	650e                	ld	a0,192(sp)
   12b6a:	65ae                	ld	a1,200(sp)
   12b6c:	f7ff7f13          	andi	t5,t5,-129
   12b70:	2f01                	sext.w	t5,t5
   12b72:	4601                	li	a2,0
   12b74:	4681                	li	a3,0
   12b76:	f872                	sd	t3,48(sp)
   12b78:	f07a                	sd	t5,32(sp)
   12b7a:	3db050ef          	jal	18754 <__letf2>
   12b7e:	7f02                	ld	t5,32(sp)
   12b80:	7e42                	ld	t3,48(sp)
   12b82:	70054a63          	bltz	a0,13296 <_vfprintf_r+0x1c7c>
   12b86:	04700793          	li	a5,71
   12b8a:	09f14703          	lbu	a4,159(sp)
   12b8e:	4bc7d563          	bge	a5,t3,13038 <_vfprintf_r+0x1a1e>
   12b92:	67e9                	lui	a5,0x1a
   12b94:	90078d93          	addi	s11,a5,-1792 # 19900 <__clzdi2+0xd4>
   12b98:	14071063          	bnez	a4,12cd8 <_vfprintf_r+0x16be>
   12b9c:	4a8d                	li	s5,3
   12b9e:	8d56                	mv	s10,s5
   12ba0:	9d8ff06f          	j	11d78 <_vfprintf_r+0x75e>
   12ba4:	65e9                	lui	a1,0x1a
   12ba6:	91858693          	addi	a3,a1,-1768 # 19918 <__clzdi2+0xec>
   12baa:	00f77613          	andi	a2,a4,15
   12bae:	9636                	add	a2,a2,a3
   12bb0:	00064683          	lbu	a3,0(a2)
   12bb4:	8f2a                	mv	t5,a0
   12bb6:	91858593          	addi	a1,a1,-1768
   12bba:	4609                	li	a2,2
   12bbc:	07800e13          	li	t3,120
   12bc0:	b1c9                	j	12882 <_vfprintf_r+0x1268>
   12bc2:	46ee                	lw	a3,216(sp)
   12bc4:	6786                	ld	a5,64(sp)
   12bc6:	6726                	ld	a4,72(sp)
   12bc8:	2685                	addiw	a3,a3,1
   12bca:	9b3e                	add	s6,s6,a5
   12bcc:	00e9b023          	sd	a4,0(s3)
   12bd0:	00f9b423          	sd	a5,8(s3)
   12bd4:	f1da                	sd	s6,224(sp)
   12bd6:	cdb6                	sw	a3,216(sp)
   12bd8:	471d                	li	a4,7
   12bda:	09c1                	addi	s3,s3,16
   12bdc:	44d74063          	blt	a4,a3,1301c <_vfprintf_r+0x1a02>
   12be0:	74064b63          	bltz	a2,13336 <_vfprintf_r+0x1d1c>
   12be4:	77a2                	ld	a5,40(sp)
   12be6:	2685                	addiw	a3,a3,1
   12be8:	cdb6                	sw	a3,216(sp)
   12bea:	9b3e                	add	s6,s6,a5
   12bec:	00f9b423          	sd	a5,8(s3)
   12bf0:	f1da                	sd	s6,224(sp)
   12bf2:	01b9b023          	sd	s11,0(s3)
   12bf6:	479d                	li	a5,7
   12bf8:	00d7c463          	blt	a5,a3,12c00 <_vfprintf_r+0x15e6>
   12bfc:	c31fe06f          	j	1182c <_vfprintf_r+0x212>
   12c00:	8f4ff06f          	j	11cf4 <_vfprintf_r+0x6da>
   12c04:	856e                	mv	a0,s11
   12c06:	f07a                	sd	t5,32(sp)
   12c08:	ec72                	sd	t3,24(sp)
   12c0a:	f5ffd0ef          	jal	10b68 <strlen>
   12c0e:	00050a9b          	sext.w	s5,a0
   12c12:	6e62                	ld	t3,24(sp)
   12c14:	7f02                	ld	t5,32(sp)
   12c16:	8756                	mv	a4,s5
   12c18:	3a0ac763          	bltz	s5,12fc6 <_vfprintf_r+0x19ac>
   12c1c:	09f14683          	lbu	a3,159(sp)
   12c20:	00070d1b          	sext.w	s10,a4
   12c24:	94068963          	beqz	a3,11d76 <_vfprintf_r+0x75c>
   12c28:	00170d1b          	addiw	s10,a4,1
   12c2c:	94aff06f          	j	11d76 <_vfprintf_r+0x75c>
   12c30:	36090f63          	beqz	s2,12fae <_vfprintf_r+0x1994>
   12c34:	45ee                	lw	a1,216(sp)
   12c36:	4901                	li	s2,0
   12c38:	89d2                	mv	s3,s4
   12c3a:	ba7fe06f          	j	117e0 <_vfprintf_r+0x1c6>
   12c3e:	8f4e                	mv	t5,s3
   12c40:	89ca                	mv	s3,s2
   12c42:	8962                	mv	s2,s8
   12c44:	9b4e                	add	s6,s6,s3
   12c46:	2a85                	addiw	s5,s5,1
   12c48:	f1da                	sd	s6,224(sp)
   12c4a:	cdd6                	sw	s5,216(sp)
   12c4c:	0128b023          	sd	s2,0(a7)
   12c50:	0138b423          	sd	s3,8(a7)
   12c54:	479d                	li	a5,7
   12c56:	0157c463          	blt	a5,s5,12c5e <_vfprintf_r+0x1644>
   12c5a:	87aff06f          	j	11cd4 <_vfprintf_r+0x6ba>
   12c5e:	b2ed                	j	12648 <_vfprintf_r+0x102e>
   12c60:	20097713          	andi	a4,s2,512
   12c64:	34070d63          	beqz	a4,12fbe <_vfprintf_r+0x19a4>
   12c68:	018a9a9b          	slliw	s5,s5,0x18
   12c6c:	418ada9b          	sraiw	s5,s5,0x18
   12c70:	ec3e                	sd	a5,24(sp)
   12c72:	8756                	mv	a4,s5
   12c74:	abeff06f          	j	11f32 <_vfprintf_r+0x918>
   12c78:	20097793          	andi	a5,s2,512
   12c7c:	08010fa3          	sb	zero,159(sp)
   12c80:	34078e63          	beqz	a5,12fdc <_vfprintf_r+0x19c2>
   12c84:	0ffafa93          	zext.b	s5,s5
   12c88:	cc0b5563          	bgez	s6,12152 <_vfprintf_r+0xb38>
   12c8c:	cd0ff06f          	j	1215c <_vfprintf_r+0xb42>
   12c90:	200f7693          	andi	a3,t5,512
   12c94:	34068163          	beqz	a3,12fd6 <_vfprintf_r+0x19bc>
   12c98:	0ff77713          	zext.b	a4,a4
   12c9c:	b67d                	j	1284a <_vfprintf_r+0x1230>
   12c9e:	20097693          	andi	a3,s2,512
   12ca2:	32068463          	beqz	a3,12fca <_vfprintf_r+0x19b0>
   12ca6:	0ff77713          	zext.b	a4,a4
   12caa:	ec3e                	sd	a5,24(sp)
   12cac:	884a                	mv	a6,s2
   12cae:	b78ff06f          	j	12026 <_vfprintf_r+0xa0c>
   12cb2:	67ae                	ld	a5,200(sp)
   12cb4:	f7ff7f13          	andi	t5,t5,-129
   12cb8:	2f01                	sext.w	t5,t5
   12cba:	03f7dc13          	srli	s8,a5,0x3f
   12cbe:	3207dc63          	bgez	a5,12ff6 <_vfprintf_r+0x19dc>
   12cc2:	02d00793          	li	a5,45
   12cc6:	08f10fa3          	sb	a5,159(sp)
   12cca:	04700793          	li	a5,71
   12cce:	01c7d4e3          	bge	a5,t3,134d6 <_vfprintf_r+0x1ebc>
   12cd2:	67e9                	lui	a5,0x1a
   12cd4:	91078d93          	addi	s11,a5,-1776 # 19910 <__clzdi2+0xe4>
   12cd8:	f002                	sd	zero,32(sp)
   12cda:	4a8d                	li	s5,3
   12cdc:	4301                	li	t1,0
   12cde:	fc02                	sd	zero,56(sp)
   12ce0:	f802                	sd	zero,48(sp)
   12ce2:	4c01                	li	s8,0
   12ce4:	4d11                	li	s10,4
   12ce6:	ac3fe06f          	j	117a8 <_vfprintf_r+0x18e>
   12cea:	8f56                	mv	t5,s5
   12cec:	8aca                	mv	s5,s2
   12cee:	894e                	mv	s2,s3
   12cf0:	89be                	mv	s3,a5
   12cf2:	9b56                	add	s6,s6,s5
   12cf4:	2605                	addiw	a2,a2,1
   12cf6:	0129b023          	sd	s2,0(s3)
   12cfa:	0159b423          	sd	s5,8(s3)
   12cfe:	f1da                	sd	s6,224(sp)
   12d00:	cdb2                	sw	a2,216(sp)
   12d02:	471d                	li	a4,7
   12d04:	09c1                	addi	s3,s3,16
   12d06:	fac75f63          	bge	a4,a2,124c4 <_vfprintf_r+0xeaa>
   12d0a:	65a2                	ld	a1,8(sp)
   12d0c:	6502                	ld	a0,0(sp)
   12d0e:	0990                	addi	a2,sp,208
   12d10:	e8fa                	sd	t5,80(sp)
   12d12:	295000ef          	jal	137a6 <__sprint_r>
   12d16:	e8051663          	bnez	a0,123a2 <_vfprintf_r+0xd88>
   12d1a:	7b0e                	ld	s6,224(sp)
   12d1c:	6f46                	ld	t5,80(sp)
   12d1e:	89d2                	mv	s3,s4
   12d20:	fa4ff06f          	j	124c4 <_vfprintf_r+0xeaa>
   12d24:	7646                	ld	a2,112(sp)
   12d26:	7586                	ld	a1,96(sp)
   12d28:	e8fe                	sd	t6,80(sp)
   12d2a:	40cd88b3          	sub	a7,s11,a2
   12d2e:	8546                	mv	a0,a7
   12d30:	fc1a                	sd	t1,56(sp)
   12d32:	f87a                	sd	t5,48(sp)
   12d34:	f472                	sd	t3,40(sp)
   12d36:	f046                	sd	a7,32(sp)
   12d38:	452010ef          	jal	1418a <strncpy>
   12d3c:	ccccd737          	lui	a4,0xccccd
   12d40:	ccd70713          	addi	a4,a4,-819 # ffffffffcccccccd <__BSS_END__+0xffffffffcccb0a3d>
   12d44:	02071793          	slli	a5,a4,0x20
   12d48:	97ba                	add	a5,a5,a4
   12d4a:	02fabab3          	mulhu	s5,s5,a5
   12d4e:	001c4703          	lbu	a4,1(s8)
   12d52:	7882                	ld	a7,32(sp)
   12d54:	7e22                	ld	t3,40(sp)
   12d56:	00e03733          	snez	a4,a4
   12d5a:	9c3a                	add	s8,s8,a4
   12d5c:	7f42                	ld	t5,48(sp)
   12d5e:	7362                	ld	t1,56(sp)
   12d60:	6fc6                	ld	t6,80(sp)
   12d62:	fff88d93          	addi	s11,a7,-1
   12d66:	003ada93          	srli	s5,s5,0x3
   12d6a:	02fab7b3          	mulhu	a5,s5,a5
   12d6e:	4685                	li	a3,1
   12d70:	4825                	li	a6,9
   12d72:	0037d713          	srli	a4,a5,0x3
   12d76:	00271793          	slli	a5,a4,0x2
   12d7a:	97ba                	add	a5,a5,a4
   12d7c:	0786                	slli	a5,a5,0x1
   12d7e:	40fa87b3          	sub	a5,s5,a5
   12d82:	0307879b          	addiw	a5,a5,48
   12d86:	fef88fa3          	sb	a5,-1(a7)
   12d8a:	bae1                	j	12762 <_vfprintf_r+0x1148>
   12d8c:	77a2                	ld	a5,40(sp)
   12d8e:	e166                	sd	s9,128(sp)
   12d90:	8cca                	mv	s9,s2
   12d92:	7942                	ld	s2,48(sp)
   12d94:	97ee                	add	a5,a5,s11
   12d96:	e8be                	sd	a5,80(sp)
   12d98:	f86a                	sd	s10,48(sp)
   12d9a:	87ce                	mv	a5,s3
   12d9c:	fcde                	sd	s7,120(sp)
   12d9e:	79e2                	ld	s3,56(sp)
   12da0:	e57a                	sd	t5,136(sp)
   12da2:	fc6e                	sd	s11,56(sp)
   12da4:	7d46                	ld	s10,112(sp)
   12da6:	6c22                	ld	s8,8(sp)
   12da8:	7da6                	ld	s11,104(sp)
   12daa:	469d                	li	a3,7
   12dac:	4ac1                	li	s5,16
   12dae:	875a                	mv	a4,s6
   12db0:	07205c63          	blez	s2,12e28 <_vfprintf_r+0x180e>
   12db4:	11305c63          	blez	s3,12ecc <_vfprintf_r+0x18b2>
   12db8:	39fd                	addiw	s3,s3,-1
   12dba:	466e                	lw	a2,216(sp)
   12dbc:	7586                	ld	a1,96(sp)
   12dbe:	976a                	add	a4,a4,s10
   12dc0:	2605                	addiw	a2,a2,1
   12dc2:	e38c                	sd	a1,0(a5)
   12dc4:	01a7b423          	sd	s10,8(a5)
   12dc8:	f1ba                	sd	a4,224(sp)
   12dca:	cdb2                	sw	a2,216(sp)
   12dcc:	07c1                	addi	a5,a5,16
   12dce:	10c6c263          	blt	a3,a2,12ed2 <_vfprintf_r+0x18b8>
   12dd2:	65c6                	ld	a1,80(sp)
   12dd4:	000dc603          	lbu	a2,0(s11)
   12dd8:	419588b3          	sub	a7,a1,s9
   12ddc:	0008859b          	sext.w	a1,a7
   12de0:	0006081b          	sext.w	a6,a2
   12de4:	00b65363          	bge	a2,a1,12dea <_vfprintf_r+0x17d0>
   12de8:	88c2                	mv	a7,a6
   12dea:	00088b1b          	sext.w	s6,a7
   12dee:	03605263          	blez	s6,12e12 <_vfprintf_r+0x17f8>
   12df2:	466e                	lw	a2,216(sp)
   12df4:	975a                	add	a4,a4,s6
   12df6:	f1ba                	sd	a4,224(sp)
   12df8:	2605                	addiw	a2,a2,1
   12dfa:	0197b023          	sd	s9,0(a5)
   12dfe:	0167b423          	sd	s6,8(a5)
   12e02:	cdb2                	sw	a2,216(sp)
   12e04:	0ec6c263          	blt	a3,a2,12ee8 <_vfprintf_r+0x18ce>
   12e08:	000dc603          	lbu	a2,0(s11)
   12e0c:	07c1                	addi	a5,a5,16
   12e0e:	0006081b          	sext.w	a6,a2
   12e12:	85da                	mv	a1,s6
   12e14:	000b5363          	bgez	s6,12e1a <_vfprintf_r+0x1800>
   12e18:	4581                	li	a1,0
   12e1a:	40b80b3b          	subw	s6,a6,a1
   12e1e:	03604863          	bgtz	s6,12e4e <_vfprintf_r+0x1834>
   12e22:	9cb2                	add	s9,s9,a2
   12e24:	f92048e3          	bgtz	s2,12db4 <_vfprintf_r+0x179a>
   12e28:	f93048e3          	bgtz	s3,12db8 <_vfprintf_r+0x179e>
   12e2c:	f4ee                	sd	s11,104(sp)
   12e2e:	89be                	mv	s3,a5
   12e30:	7de2                	ld	s11,56(sp)
   12e32:	77a2                	ld	a5,40(sp)
   12e34:	8966                	mv	s2,s9
   12e36:	8b3a                	mv	s6,a4
   12e38:	00fd8733          	add	a4,s11,a5
   12e3c:	7be6                	ld	s7,120(sp)
   12e3e:	6c8a                	ld	s9,128(sp)
   12e40:	6f2a                	ld	t5,136(sp)
   12e42:	7d42                	ld	s10,48(sp)
   12e44:	e9277663          	bgeu	a4,s2,124d0 <_vfprintf_r+0xeb6>
   12e48:	893a                	mv	s2,a4
   12e4a:	e86ff06f          	j	124d0 <_vfprintf_r+0xeb6>
   12e4e:	68e9                	lui	a7,0x1a
   12e50:	466e                	lw	a2,216(sp)
   12e52:	bf888b93          	addi	s7,a7,-1032 # 19bf8 <zeroes.0>
   12e56:	056adc63          	bge	s5,s6,12eae <_vfprintf_r+0x1894>
   12e5a:	65e9                	lui	a1,0x1a
   12e5c:	bf858b93          	addi	s7,a1,-1032 # 19bf8 <zeroes.0>
   12e60:	85de                	mv	a1,s7
   12e62:	8bda                	mv	s7,s6
   12e64:	8b4e                	mv	s6,s3
   12e66:	89ca                	mv	s3,s2
   12e68:	892e                	mv	s2,a1
   12e6a:	a021                	j	12e72 <_vfprintf_r+0x1858>
   12e6c:	3bc1                	addiw	s7,s7,-16
   12e6e:	037adb63          	bge	s5,s7,12ea4 <_vfprintf_r+0x188a>
   12e72:	0741                	addi	a4,a4,16
   12e74:	2605                	addiw	a2,a2,1
   12e76:	0127b023          	sd	s2,0(a5)
   12e7a:	0157b423          	sd	s5,8(a5)
   12e7e:	f1ba                	sd	a4,224(sp)
   12e80:	cdb2                	sw	a2,216(sp)
   12e82:	07c1                	addi	a5,a5,16
   12e84:	fec6d4e3          	bge	a3,a2,12e6c <_vfprintf_r+0x1852>
   12e88:	6502                	ld	a0,0(sp)
   12e8a:	0990                	addi	a2,sp,208
   12e8c:	85e2                	mv	a1,s8
   12e8e:	119000ef          	jal	137a6 <__sprint_r>
   12e92:	22051563          	bnez	a0,130bc <_vfprintf_r+0x1aa2>
   12e96:	3bc1                	addiw	s7,s7,-16
   12e98:	770e                	ld	a4,224(sp)
   12e9a:	466e                	lw	a2,216(sp)
   12e9c:	87d2                	mv	a5,s4
   12e9e:	469d                	li	a3,7
   12ea0:	fd7ac9e3          	blt	s5,s7,12e72 <_vfprintf_r+0x1858>
   12ea4:	85ca                	mv	a1,s2
   12ea6:	894e                	mv	s2,s3
   12ea8:	89da                	mv	s3,s6
   12eaa:	8b5e                	mv	s6,s7
   12eac:	8bae                	mv	s7,a1
   12eae:	975a                	add	a4,a4,s6
   12eb0:	2605                	addiw	a2,a2,1
   12eb2:	f1ba                	sd	a4,224(sp)
   12eb4:	cdb2                	sw	a2,216(sp)
   12eb6:	0177b023          	sd	s7,0(a5)
   12eba:	0167b423          	sd	s6,8(a5)
   12ebe:	2ac6cd63          	blt	a3,a2,13178 <_vfprintf_r+0x1b5e>
   12ec2:	000dc603          	lbu	a2,0(s11)
   12ec6:	07c1                	addi	a5,a5,16
   12ec8:	9cb2                	add	s9,s9,a2
   12eca:	bfa9                	j	12e24 <_vfprintf_r+0x180a>
   12ecc:	1dfd                	addi	s11,s11,-1
   12ece:	397d                	addiw	s2,s2,-1
   12ed0:	b5ed                	j	12dba <_vfprintf_r+0x17a0>
   12ed2:	6502                	ld	a0,0(sp)
   12ed4:	0990                	addi	a2,sp,208
   12ed6:	85e2                	mv	a1,s8
   12ed8:	0cf000ef          	jal	137a6 <__sprint_r>
   12edc:	1e051063          	bnez	a0,130bc <_vfprintf_r+0x1aa2>
   12ee0:	770e                	ld	a4,224(sp)
   12ee2:	87d2                	mv	a5,s4
   12ee4:	469d                	li	a3,7
   12ee6:	b5f5                	j	12dd2 <_vfprintf_r+0x17b8>
   12ee8:	6502                	ld	a0,0(sp)
   12eea:	0990                	addi	a2,sp,208
   12eec:	85e2                	mv	a1,s8
   12eee:	0b9000ef          	jal	137a6 <__sprint_r>
   12ef2:	1c051563          	bnez	a0,130bc <_vfprintf_r+0x1aa2>
   12ef6:	000dc603          	lbu	a2,0(s11)
   12efa:	770e                	ld	a4,224(sp)
   12efc:	87d2                	mv	a5,s4
   12efe:	0006081b          	sext.w	a6,a2
   12f02:	469d                	li	a3,7
   12f04:	b739                	j	12e12 <_vfprintf_r+0x17f8>
   12f06:	0005c703          	lbu	a4,0(a1)
   12f0a:	bfff7f13          	andi	t5,t5,-1025
   12f0e:	2f01                	sext.w	t5,t5
   12f10:	14e105a3          	sb	a4,331(sp)
   12f14:	ec3e                	sd	a5,24(sp)
   12f16:	4601                	li	a2,0
   12f18:	14b10d93          	addi	s11,sp,331
   12f1c:	b0cd                	j	127fe <_vfprintf_r+0x11e4>
   12f1e:	65a2                	ld	a1,8(sp)
   12f20:	6502                	ld	a0,0(sp)
   12f22:	0990                	addi	a2,sp,208
   12f24:	f87a                	sd	t5,48(sp)
   12f26:	081000ef          	jal	137a6 <__sprint_r>
   12f2a:	c6051c63          	bnez	a0,123a2 <_vfprintf_r+0xd88>
   12f2e:	562a                	lw	a2,168(sp)
   12f30:	7b0e                	ld	s6,224(sp)
   12f32:	7f42                	ld	t5,48(sp)
   12f34:	89d2                	mv	s3,s4
   12f36:	bea9                	j	12a90 <_vfprintf_r+0x1476>
   12f38:	09f14703          	lbu	a4,159(sp)
   12f3c:	4d01                	li	s10,0
   12f3e:	14c10d93          	addi	s11,sp,332
   12f42:	870ff06f          	j	11fb2 <_vfprintf_r+0x998>
   12f46:	65a2                	ld	a1,8(sp)
   12f48:	6502                	ld	a0,0(sp)
   12f4a:	0990                	addi	a2,sp,208
   12f4c:	e8fa                	sd	t5,80(sp)
   12f4e:	059000ef          	jal	137a6 <__sprint_r>
   12f52:	c4051863          	bnez	a0,123a2 <_vfprintf_r+0xd88>
   12f56:	7b0e                	ld	s6,224(sp)
   12f58:	6f46                	ld	t5,80(sp)
   12f5a:	89d2                	mv	s3,s4
   12f5c:	d5aff06f          	j	124b6 <_vfprintf_r+0xe9c>
   12f60:	00168d1b          	addiw	s10,a3,1
   12f64:	e13fe06f          	j	11d76 <_vfprintf_r+0x75c>
   12f68:	883e                	mv	a6,a5
   12f6a:	babd                	j	128e8 <_vfprintf_r+0x12ce>
   12f6c:	03000713          	li	a4,48
   12f70:	8f2a                	mv	t5,a0
   12f72:	ec3e                	sd	a5,24(sp)
   12f74:	14e105a3          	sb	a4,331(sp)
   12f78:	8d5a                	mv	s10,s6
   12f7a:	f802                	sd	zero,48(sp)
   12f7c:	fc02                	sd	zero,56(sp)
   12f7e:	4a85                	li	s5,1
   12f80:	4c01                	li	s8,0
   12f82:	14b10d93          	addi	s11,sp,331
   12f86:	07800e13          	li	t3,120
   12f8a:	4501                	li	a0,0
   12f8c:	c8ffe06f          	j	11c1a <_vfprintf_r+0x600>
   12f90:	873e                	mv	a4,a5
   12f92:	97ee                	add	a5,a5,s11
   12f94:	412787b3          	sub	a5,a5,s2
   12f98:	4157073b          	subw	a4,a4,s5
   12f9c:	0007869b          	sext.w	a3,a5
   12fa0:	00d75363          	bge	a4,a3,12fa6 <_vfprintf_r+0x198c>
   12fa4:	87ba                	mv	a5,a4
   12fa6:	00078a9b          	sext.w	s5,a5
   12faa:	d8eff06f          	j	12538 <_vfprintf_r+0xf1e>
   12fae:	89d2                	mv	s3,s4
   12fb0:	855fe06f          	j	11804 <_vfprintf_r+0x1ea>
   12fb4:	4805                	li	a6,1
   12fb6:	b435                	j	129e2 <_vfprintf_r+0x13c8>
   12fb8:	4681                	li	a3,0
   12fba:	db3fe06f          	j	11d6c <_vfprintf_r+0x752>
   12fbe:	ec3e                	sd	a5,24(sp)
   12fc0:	8756                	mv	a4,s5
   12fc2:	f71fe06f          	j	11f32 <_vfprintf_r+0x918>
   12fc6:	4701                	li	a4,0
   12fc8:	b991                	j	12c1c <_vfprintf_r+0x1602>
   12fca:	1702                	slli	a4,a4,0x20
   12fcc:	9301                	srli	a4,a4,0x20
   12fce:	ec3e                	sd	a5,24(sp)
   12fd0:	884a                	mv	a6,s2
   12fd2:	854ff06f          	j	12026 <_vfprintf_r+0xa0c>
   12fd6:	1702                	slli	a4,a4,0x20
   12fd8:	9301                	srli	a4,a4,0x20
   12fda:	b885                	j	1284a <_vfprintf_r+0x1230>
   12fdc:	1a82                	slli	s5,s5,0x20
   12fde:	020ada93          	srli	s5,s5,0x20
   12fe2:	960b5863          	bgez	s6,12152 <_vfprintf_r+0xb38>
   12fe6:	976ff06f          	j	1215c <_vfprintf_r+0xb42>
   12fea:	67c2                	ld	a5,16(sp)
   12fec:	8dde                	mv	s11,s7
   12fee:	00f71023          	sh	a5,0(a4)
   12ff2:	871fe06f          	j	11862 <_vfprintf_r+0x248>
   12ff6:	04700793          	li	a5,71
   12ffa:	09f14703          	lbu	a4,159(sp)
   12ffe:	57c7d463          	bge	a5,t3,13566 <_vfprintf_r+0x1f4c>
   13002:	67e9                	lui	a5,0x1a
   13004:	91078d93          	addi	s11,a5,-1776 # 19910 <__clzdi2+0xe4>
   13008:	6c071a63          	bnez	a4,136dc <_vfprintf_r+0x20c2>
   1300c:	4a8d                	li	s5,3
   1300e:	8d56                	mv	s10,s5
   13010:	4301                	li	t1,0
   13012:	fc02                	sd	zero,56(sp)
   13014:	f802                	sd	zero,48(sp)
   13016:	f002                	sd	zero,32(sp)
   13018:	f90fe06f          	j	117a8 <_vfprintf_r+0x18e>
   1301c:	65a2                	ld	a1,8(sp)
   1301e:	6502                	ld	a0,0(sp)
   13020:	0990                	addi	a2,sp,208
   13022:	f87a                	sd	t5,48(sp)
   13024:	782000ef          	jal	137a6 <__sprint_r>
   13028:	b6051d63          	bnez	a0,123a2 <_vfprintf_r+0xd88>
   1302c:	562a                	lw	a2,168(sp)
   1302e:	7b0e                	ld	s6,224(sp)
   13030:	46ee                	lw	a3,216(sp)
   13032:	7f42                	ld	t5,48(sp)
   13034:	89d2                	mv	s3,s4
   13036:	b66d                	j	12be0 <_vfprintf_r+0x15c6>
   13038:	67e9                	lui	a5,0x1a
   1303a:	8f878d93          	addi	s11,a5,-1800 # 198f8 <__clzdi2+0xcc>
   1303e:	bea9                	j	12b98 <_vfprintf_r+0x157e>
   13040:	6502                	ld	a0,0(sp)
   13042:	0013059b          	addiw	a1,t1,1
   13046:	e8fa                	sd	t5,80(sp)
   13048:	fc72                	sd	t3,56(sp)
   1304a:	f41a                	sd	t1,40(sp)
   1304c:	f9ffd0ef          	jal	10fea <_malloc_r>
   13050:	f02a                	sd	a0,32(sp)
   13052:	7322                	ld	t1,40(sp)
   13054:	7e62                	ld	t3,56(sp)
   13056:	6f46                	ld	t5,80(sp)
   13058:	64050a63          	beqz	a0,136ac <_vfprintf_r+0x2092>
   1305c:	678e                	ld	a5,192(sp)
   1305e:	6aae                	ld	s5,200(sp)
   13060:	102f6f13          	ori	t5,t5,258
   13064:	2f01                	sext.w	t5,t5
   13066:	8c3e                	mv	s8,a5
   13068:	5c0ac163          	bltz	s5,1362a <_vfprintf_r+0x2010>
   1306c:	7d82                	ld	s11,32(sp)
   1306e:	fbfe069b          	addiw	a3,t3,-65
   13072:	e882                	sd	zero,80(sp)
   13074:	92ffe06f          	j	119a2 <_vfprintf_r+0x388>
   13078:	02d00693          	li	a3,45
   1307c:	4705                	li	a4,1
   1307e:	0ad108a3          	sb	a3,177(sp)
   13082:	4187073b          	subw	a4,a4,s8
   13086:	46a5                	li	a3,9
   13088:	00e6d463          	bge	a3,a4,13090 <_vfprintf_r+0x1a76>
   1308c:	ac5fe06f          	j	11b50 <_vfprintf_r+0x536>
   13090:	0b210693          	addi	a3,sp,178
   13094:	0b9c                	addi	a5,sp,464
   13096:	40f68633          	sub	a2,a3,a5
   1309a:	0307071b          	addiw	a4,a4,48
   1309e:	1216079b          	addiw	a5,a2,289
   130a2:	00e68023          	sb	a4,0(a3)
   130a6:	ecbe                	sd	a5,88(sp)
   130a8:	b21fe06f          	j	11bc8 <_vfprintf_r+0x5ae>
   130ac:	09f14503          	lbu	a0,159(sp)
   130b0:	c119                	beqz	a0,130b6 <_vfprintf_r+0x1a9c>
   130b2:	b61fe06f          	j	11c12 <_vfprintf_r+0x5f8>
   130b6:	4301                	li	t1,0
   130b8:	b5ffe06f          	j	11c16 <_vfprintf_r+0x5fc>
   130bc:	8962                	mv	s2,s8
   130be:	ae6ff06f          	j	123a4 <_vfprintf_r+0xd8a>
   130c2:	f41a                	sd	t1,40(sp)
   130c4:	468d                	li	a3,3
   130c6:	7722                	ld	a4,40(sp)
   130c8:	6502                	ld	a0,0(sp)
   130ca:	0b810893          	addi	a7,sp,184
   130ce:	0ac10813          	addi	a6,sp,172
   130d2:	113c                	addi	a5,sp,168
   130d4:	85e2                	mv	a1,s8
   130d6:	8656                	mv	a2,s5
   130d8:	e11a                	sd	t1,128(sp)
   130da:	fcfa                	sd	t5,120(sp)
   130dc:	fc72                	sd	t3,56(sp)
   130de:	4a6010ef          	jal	14584 <_ldtoa_r>
   130e2:	7e62                	ld	t3,56(sp)
   130e4:	7f66                	ld	t5,120(sp)
   130e6:	630a                	ld	t1,128(sp)
   130e8:	8daa                	mv	s11,a0
   130ea:	77a2                	ld	a5,40(sp)
   130ec:	fdfe7913          	andi	s2,t3,-33
   130f0:	04600693          	li	a3,70
   130f4:	00fd8b33          	add	s6,s11,a5
   130f8:	10d90663          	beq	s2,a3,13204 <_vfprintf_r+0x1bea>
   130fc:	8562                	mv	a0,s8
   130fe:	85d6                	mv	a1,s5
   13100:	4601                	li	a2,0
   13102:	4681                	li	a3,0
   13104:	e11a                	sd	t1,128(sp)
   13106:	fcfa                	sd	t5,120(sp)
   13108:	fc72                	sd	t3,56(sp)
   1310a:	504050ef          	jal	1860e <__eqtf2>
   1310e:	7e62                	ld	t3,56(sp)
   13110:	7f66                	ld	t5,120(sp)
   13112:	630a                	ld	t1,128(sp)
   13114:	48050d63          	beqz	a0,135ae <_vfprintf_r+0x1f94>
   13118:	77ea                	ld	a5,184(sp)
   1311a:	5d67f963          	bgeu	a5,s6,136ec <_vfprintf_r+0x20d2>
   1311e:	03000613          	li	a2,48
   13122:	00178713          	addi	a4,a5,1
   13126:	fd3a                	sd	a4,184(sp)
   13128:	00c78023          	sb	a2,0(a5)
   1312c:	77ea                	ld	a5,184(sp)
   1312e:	ff67eae3          	bltu	a5,s6,13122 <_vfprintf_r+0x1b08>
   13132:	41b787bb          	subw	a5,a5,s11
   13136:	04700693          	li	a3,71
   1313a:	f43e                	sd	a5,40(sp)
   1313c:	5c2a                	lw	s8,168(sp)
   1313e:	06d90263          	beq	s2,a3,131a2 <_vfprintf_r+0x1b88>
   13142:	04600693          	li	a3,70
   13146:	0ed90f63          	beq	s2,a3,13244 <_vfprintf_r+0x1c2a>
   1314a:	fffc071b          	addiw	a4,s8,-1
   1314e:	d53a                	sw	a4,168(sp)
   13150:	0bc10823          	sb	t3,176(sp)
   13154:	16074363          	bltz	a4,132ba <_vfprintf_r+0x1ca0>
   13158:	02b00693          	li	a3,43
   1315c:	0ad108a3          	sb	a3,177(sp)
   13160:	46a5                	li	a3,9
   13162:	00e6d463          	bge	a3,a4,1316a <_vfprintf_r+0x1b50>
   13166:	9ebfe06f          	j	11b50 <_vfprintf_r+0x536>
   1316a:	03000693          	li	a3,48
   1316e:	0ad10923          	sb	a3,178(sp)
   13172:	0b310693          	addi	a3,sp,179
   13176:	bf39                	j	13094 <_vfprintf_r+0x1a7a>
   13178:	6502                	ld	a0,0(sp)
   1317a:	0990                	addi	a2,sp,208
   1317c:	85e2                	mv	a1,s8
   1317e:	628000ef          	jal	137a6 <__sprint_r>
   13182:	fd0d                	bnez	a0,130bc <_vfprintf_r+0x1aa2>
   13184:	000dc603          	lbu	a2,0(s11)
   13188:	770e                	ld	a4,224(sp)
   1318a:	87d2                	mv	a5,s4
   1318c:	469d                	li	a3,7
   1318e:	9cb2                	add	s9,s9,a2
   13190:	b951                	j	12e24 <_vfprintf_r+0x180a>
   13192:	5c2a                	lw	s8,168(sp)
   13194:	41bb07bb          	subw	a5,s6,s11
   13198:	04700693          	li	a3,71
   1319c:	f43e                	sd	a5,40(sp)
   1319e:	0ad91363          	bne	s2,a3,13244 <_vfprintf_r+0x1c2a>
   131a2:	5775                	li	a4,-3
   131a4:	10ec4563          	blt	s8,a4,132ae <_vfprintf_r+0x1c94>
   131a8:	03835263          	bge	t1,s8,131cc <_vfprintf_r+0x1bb2>
   131ac:	3e79                	addiw	t3,t3,-2
   131ae:	fffc071b          	addiw	a4,s8,-1
   131b2:	0bc10823          	sb	t3,176(sp)
   131b6:	d53a                	sw	a4,168(sp)
   131b8:	fa0750e3          	bgez	a4,13158 <_vfprintf_r+0x1b3e>
   131bc:	4705                	li	a4,1
   131be:	02d00693          	li	a3,45
   131c2:	4187073b          	subw	a4,a4,s8
   131c6:	0ad108a3          	sb	a3,177(sp)
   131ca:	b745                	j	1316a <_vfprintf_r+0x1b50>
   131cc:	77a2                	ld	a5,40(sp)
   131ce:	14fc4063          	blt	s8,a5,1330e <_vfprintf_r+0x1cf4>
   131d2:	77c2                	ld	a5,48(sp)
   131d4:	8ae2                	mv	s5,s8
   131d6:	0017f713          	andi	a4,a5,1
   131da:	c701                	beqz	a4,131e2 <_vfprintf_r+0x1bc8>
   131dc:	6786                	ld	a5,64(sp)
   131de:	01878abb          	addw	s5,a5,s8
   131e2:	77c2                	ld	a5,48(sp)
   131e4:	4007f713          	andi	a4,a5,1024
   131e8:	c319                	beqz	a4,131ee <_vfprintf_r+0x1bd4>
   131ea:	2f804b63          	bgtz	s8,134e0 <_vfprintf_r+0x1ec6>
   131ee:	8856                	mv	a6,s5
   131f0:	120ace63          	bltz	s5,1332c <_vfprintf_r+0x1d12>
   131f4:	00080d1b          	sext.w	s10,a6
   131f8:	06700e13          	li	t3,103
   131fc:	fc02                	sd	zero,56(sp)
   131fe:	f802                	sd	zero,48(sp)
   13200:	9fffe06f          	j	11bfe <_vfprintf_r+0x5e4>
   13204:	000dc603          	lbu	a2,0(s11)
   13208:	03000693          	li	a3,48
   1320c:	32d60d63          	beq	a2,a3,13546 <_vfprintf_r+0x1f2c>
   13210:	56aa                	lw	a3,168(sp)
   13212:	9b36                	add	s6,s6,a3
   13214:	8562                	mv	a0,s8
   13216:	85d6                	mv	a1,s5
   13218:	4601                	li	a2,0
   1321a:	4681                	li	a3,0
   1321c:	fc9a                	sd	t1,120(sp)
   1321e:	fc7a                	sd	t5,56(sp)
   13220:	f472                	sd	t3,40(sp)
   13222:	3ec050ef          	jal	1860e <__eqtf2>
   13226:	7e22                	ld	t3,40(sp)
   13228:	7f62                	ld	t5,56(sp)
   1322a:	7366                	ld	t1,120(sp)
   1322c:	d13d                	beqz	a0,13192 <_vfprintf_r+0x1b78>
   1322e:	77ea                	ld	a5,184(sp)
   13230:	ef67e7e3          	bltu	a5,s6,1311e <_vfprintf_r+0x1b04>
   13234:	41b787bb          	subw	a5,a5,s11
   13238:	04700693          	li	a3,71
   1323c:	f43e                	sd	a5,40(sp)
   1323e:	5c2a                	lw	s8,168(sp)
   13240:	f6d901e3          	beq	s2,a3,131a2 <_vfprintf_r+0x1b88>
   13244:	77c2                	ld	a5,48(sp)
   13246:	0017f713          	andi	a4,a5,1
   1324a:	00e36733          	or	a4,t1,a4
   1324e:	43805463          	blez	s8,13676 <_vfprintf_r+0x205c>
   13252:	36071463          	bnez	a4,135ba <_vfprintf_r+0x1fa0>
   13256:	8ae2                	mv	s5,s8
   13258:	06600e13          	li	t3,102
   1325c:	77c2                	ld	a5,48(sp)
   1325e:	4007f713          	andi	a4,a5,1024
   13262:	28071163          	bnez	a4,134e4 <_vfprintf_r+0x1eca>
   13266:	8856                	mv	a6,s5
   13268:	000ac563          	bltz	s5,13272 <_vfprintf_r+0x1c58>
   1326c:	00080d1b          	sext.w	s10,a6
   13270:	b771                	j	131fc <_vfprintf_r+0x1be2>
   13272:	4801                	li	a6,0
   13274:	00080d1b          	sext.w	s10,a6
   13278:	b751                	j	131fc <_vfprintf_r+0x1be2>
   1327a:	65a2                	ld	a1,8(sp)
   1327c:	6502                	ld	a0,0(sp)
   1327e:	0990                	addi	a2,sp,208
   13280:	f87a                	sd	t5,48(sp)
   13282:	524000ef          	jal	137a6 <__sprint_r>
   13286:	90051e63          	bnez	a0,123a2 <_vfprintf_r+0xd88>
   1328a:	5aaa                	lw	s5,168(sp)
   1328c:	7b0e                	ld	s6,224(sp)
   1328e:	7f42                	ld	t5,48(sp)
   13290:	89d2                	mv	s3,s4
   13292:	a6cff06f          	j	124fe <_vfprintf_r+0xee4>
   13296:	02d00793          	li	a5,45
   1329a:	08f10fa3          	sb	a5,159(sp)
   1329e:	04700793          	li	a5,71
   132a2:	21c7d063          	bge	a5,t3,134a2 <_vfprintf_r+0x1e88>
   132a6:	67e9                	lui	a5,0x1a
   132a8:	90078d93          	addi	s11,a5,-1792 # 19900 <__clzdi2+0xd4>
   132ac:	b435                	j	12cd8 <_vfprintf_r+0x16be>
   132ae:	3e79                	addiw	t3,t3,-2
   132b0:	fffc071b          	addiw	a4,s8,-1
   132b4:	0bc10823          	sb	t3,176(sp)
   132b8:	d53a                	sw	a4,168(sp)
   132ba:	02d00693          	li	a3,45
   132be:	4705                	li	a4,1
   132c0:	0ad108a3          	sb	a3,177(sp)
   132c4:	4187073b          	subw	a4,a4,s8
   132c8:	46a5                	li	a3,9
   132ca:	00e6d463          	bge	a3,a4,132d2 <_vfprintf_r+0x1cb8>
   132ce:	883fe06f          	j	11b50 <_vfprintf_r+0x536>
   132d2:	bd61                	j	1316a <_vfprintf_r+0x1b50>
   132d4:	ec4a                	sd	s2,24(sp)
   132d6:	12070963          	beqz	a4,13408 <_vfprintf_r+0x1dee>
   132da:	00130d1b          	addiw	s10,t1,1
   132de:	8a9a                	mv	s5,t1
   132e0:	fc02                	sd	zero,56(sp)
   132e2:	4301                	li	t1,0
   132e4:	f802                	sd	zero,48(sp)
   132e6:	4c01                	li	s8,0
   132e8:	cc0fe06f          	j	117a8 <_vfprintf_r+0x18e>
   132ec:	65a2                	ld	a1,8(sp)
   132ee:	6502                	ld	a0,0(sp)
   132f0:	0990                	addi	a2,sp,208
   132f2:	f87a                	sd	t5,48(sp)
   132f4:	4b2000ef          	jal	137a6 <__sprint_r>
   132f8:	8a051563          	bnez	a0,123a2 <_vfprintf_r+0xd88>
   132fc:	572a                	lw	a4,168(sp)
   132fe:	77a2                	ld	a5,40(sp)
   13300:	7b0e                	ld	s6,224(sp)
   13302:	7f42                	ld	t5,48(sp)
   13304:	89d2                	mv	s3,s4
   13306:	40e7873b          	subw	a4,a5,a4
   1330a:	a2eff06f          	j	12538 <_vfprintf_r+0xf1e>
   1330e:	6786                	ld	a5,64(sp)
   13310:	7722                	ld	a4,40(sp)
   13312:	06700e13          	li	t3,103
   13316:	00e78abb          	addw	s5,a5,a4
   1331a:	f58041e3          	bgtz	s8,1325c <_vfprintf_r+0x1c42>
   1331e:	418a88bb          	subw	a7,s5,s8
   13322:	00188a9b          	addiw	s5,a7,1
   13326:	8856                	mv	a6,s5
   13328:	ec0ad6e3          	bgez	s5,131f4 <_vfprintf_r+0x1bda>
   1332c:	4801                	li	a6,0
   1332e:	b5d9                	j	131f4 <_vfprintf_r+0x1bda>
   13330:	86ca                	mv	a3,s2
   13332:	c76ff06f          	j	127a8 <_vfprintf_r+0x118e>
   13336:	5741                	li	a4,-16
   13338:	40c00abb          	negw	s5,a2
   1333c:	36e65463          	bge	a2,a4,136a4 <_vfprintf_r+0x208a>
   13340:	6769                	lui	a4,0x1a
   13342:	bf870913          	addi	s2,a4,-1032 # 19bf8 <zeroes.0>
   13346:	48c1                	li	a7,16
   13348:	431d                	li	t1,7
   1334a:	8c7a                	mv	s8,t5
   1334c:	a021                	j	13354 <_vfprintf_r+0x1d3a>
   1334e:	3ac1                	addiw	s5,s5,-16
   13350:	1158de63          	bge	a7,s5,1346c <_vfprintf_r+0x1e52>
   13354:	0b41                	addi	s6,s6,16
   13356:	2685                	addiw	a3,a3,1
   13358:	0129b023          	sd	s2,0(s3)
   1335c:	0119b423          	sd	a7,8(s3)
   13360:	f1da                	sd	s6,224(sp)
   13362:	cdb6                	sw	a3,216(sp)
   13364:	09c1                	addi	s3,s3,16
   13366:	fed354e3          	bge	t1,a3,1334e <_vfprintf_r+0x1d34>
   1336a:	65a2                	ld	a1,8(sp)
   1336c:	6502                	ld	a0,0(sp)
   1336e:	0990                	addi	a2,sp,208
   13370:	436000ef          	jal	137a6 <__sprint_r>
   13374:	c119                	beqz	a0,1337a <_vfprintf_r+0x1d60>
   13376:	82cff06f          	j	123a2 <_vfprintf_r+0xd88>
   1337a:	7b0e                	ld	s6,224(sp)
   1337c:	46ee                	lw	a3,216(sp)
   1337e:	89d2                	mv	s3,s4
   13380:	431d                	li	t1,7
   13382:	48c1                	li	a7,16
   13384:	b7e9                	j	1334e <_vfprintf_r+0x1d34>
   13386:	0013079b          	addiw	a5,t1,1
   1338a:	f43e                	sd	a5,40(sp)
   1338c:	4689                	li	a3,2
   1338e:	bb25                	j	130c6 <_vfprintf_r+0x1aac>
   13390:	00031363          	bnez	t1,13396 <_vfprintf_r+0x1d7c>
   13394:	8336                	mv	t1,a3
   13396:	1e0ad463          	bgez	s5,1357e <_vfprintf_r+0x1f64>
   1339a:	177e                	slli	a4,a4,0x3f
   1339c:	02d00793          	li	a5,45
   133a0:	f87a                	sd	t5,48(sp)
   133a2:	00eacab3          	xor	s5,s5,a4
   133a6:	f002                	sd	zero,32(sp)
   133a8:	8f5a                	mv	t5,s6
   133aa:	e8be                	sd	a5,80(sp)
   133ac:	6502                	ld	a0,0(sp)
   133ae:	871a                	mv	a4,t1
   133b0:	0b810893          	addi	a7,sp,184
   133b4:	0ac10813          	addi	a6,sp,172
   133b8:	113c                	addi	a5,sp,168
   133ba:	4689                	li	a3,2
   133bc:	85e2                	mv	a1,s8
   133be:	8656                	mv	a2,s5
   133c0:	fcfa                	sd	t5,120(sp)
   133c2:	fc72                	sd	t3,56(sp)
   133c4:	f41a                	sd	t1,40(sp)
   133c6:	1be010ef          	jal	14584 <_ldtoa_r>
   133ca:	7e62                	ld	t3,56(sp)
   133cc:	04700713          	li	a4,71
   133d0:	7322                	ld	t1,40(sp)
   133d2:	7f66                	ld	t5,120(sp)
   133d4:	8daa                	mv	s11,a0
   133d6:	30ee1163          	bne	t3,a4,136d8 <_vfprintf_r+0x20be>
   133da:	77c2                	ld	a5,48(sp)
   133dc:	0017f713          	andi	a4,a5,1
   133e0:	ef19                	bnez	a4,133fe <_vfprintf_r+0x1de4>
   133e2:	77ea                	ld	a5,184(sp)
   133e4:	5c2a                	lw	s8,168(sp)
   133e6:	5775                	li	a4,-3
   133e8:	41b787bb          	subw	a5,a5,s11
   133ec:	f43e                	sd	a5,40(sp)
   133ee:	ecec40e3          	blt	s8,a4,132ae <_vfprintf_r+0x1c94>
   133f2:	db834de3          	blt	t1,s8,131ac <_vfprintf_r+0x1b92>
   133f6:	f0fc4ce3          	blt	s8,a5,1330e <_vfprintf_r+0x1cf4>
   133fa:	8ae2                	mv	s5,s8
   133fc:	b3dd                	j	131e2 <_vfprintf_r+0x1bc8>
   133fe:	006d8b33          	add	s6,s11,t1
   13402:	04700913          	li	s2,71
   13406:	b539                	j	13214 <_vfprintf_r+0x1bfa>
   13408:	8a9a                	mv	s5,t1
   1340a:	8d1a                	mv	s10,t1
   1340c:	fc02                	sd	zero,56(sp)
   1340e:	4301                	li	t1,0
   13410:	f802                	sd	zero,48(sp)
   13412:	4c01                	li	s8,0
   13414:	b94fe06f          	j	117a8 <_vfprintf_r+0x18e>
   13418:	c31c                	sw	a5,0(a4)
   1341a:	8dde                	mv	s11,s7
   1341c:	c46fe06f          	j	11862 <_vfprintf_r+0x248>
   13420:	f002                	sd	zero,32(sp)
   13422:	0e810d93          	addi	s11,sp,232
   13426:	577d                	li	a4,-1
   13428:	177e                	slli	a4,a4,0x3f
   1342a:	02d00793          	li	a5,45
   1342e:	00eacab3          	xor	s5,s5,a4
   13432:	e8be                	sd	a5,80(sp)
   13434:	fbfe069b          	addiw	a3,t3,-65
   13438:	02600713          	li	a4,38
   1343c:	00e68463          	beq	a3,a4,13444 <_vfprintf_r+0x1e2a>
   13440:	d62fe06f          	j	119a2 <_vfprintf_r+0x388>
   13444:	6502                	ld	a0,0(sp)
   13446:	871a                	mv	a4,t1
   13448:	0b810893          	addi	a7,sp,184
   1344c:	0ac10813          	addi	a6,sp,172
   13450:	113c                	addi	a5,sp,168
   13452:	4689                	li	a3,2
   13454:	85e2                	mv	a1,s8
   13456:	8656                	mv	a2,s5
   13458:	fcfa                	sd	t5,120(sp)
   1345a:	fc72                	sd	t3,56(sp)
   1345c:	f41a                	sd	t1,40(sp)
   1345e:	126010ef          	jal	14584 <_ldtoa_r>
   13462:	7322                	ld	t1,40(sp)
   13464:	7e62                	ld	t3,56(sp)
   13466:	7f66                	ld	t5,120(sp)
   13468:	8daa                	mv	s11,a0
   1346a:	bf85                	j	133da <_vfprintf_r+0x1dc0>
   1346c:	8f62                	mv	t5,s8
   1346e:	9b56                	add	s6,s6,s5
   13470:	2685                	addiw	a3,a3,1
   13472:	f1da                	sd	s6,224(sp)
   13474:	cdb6                	sw	a3,216(sp)
   13476:	0129b023          	sd	s2,0(s3)
   1347a:	0159b423          	sd	s5,8(s3)
   1347e:	471d                	li	a4,7
   13480:	e4d75063          	bge	a4,a3,12ac0 <_vfprintf_r+0x14a6>
   13484:	65a2                	ld	a1,8(sp)
   13486:	6502                	ld	a0,0(sp)
   13488:	0990                	addi	a2,sp,208
   1348a:	f87a                	sd	t5,48(sp)
   1348c:	31a000ef          	jal	137a6 <__sprint_r>
   13490:	c119                	beqz	a0,13496 <_vfprintf_r+0x1e7c>
   13492:	f11fe06f          	j	123a2 <_vfprintf_r+0xd88>
   13496:	7b0e                	ld	s6,224(sp)
   13498:	46ee                	lw	a3,216(sp)
   1349a:	7f42                	ld	t5,48(sp)
   1349c:	89d2                	mv	s3,s4
   1349e:	f46ff06f          	j	12be4 <_vfprintf_r+0x15ca>
   134a2:	67e9                	lui	a5,0x1a
   134a4:	8f878d93          	addi	s11,a5,-1800 # 198f8 <__clzdi2+0xcc>
   134a8:	831ff06f          	j	12cd8 <_vfprintf_r+0x16be>
   134ac:	77c2                	ld	a5,48(sp)
   134ae:	8efd                	and	a3,a3,a5
   134b0:	e299                	bnez	a3,134b6 <_vfprintf_r+0x1e9c>
   134b2:	f2efe06f          	j	11be0 <_vfprintf_r+0x5c6>
   134b6:	f24fe06f          	j	11bda <_vfprintf_r+0x5c0>
   134ba:	678e                	ld	a5,192(sp)
   134bc:	6aae                	ld	s5,200(sp)
   134be:	100f6713          	ori	a4,t5,256
   134c2:	2701                	sext.w	a4,a4
   134c4:	f87a                	sd	t5,48(sp)
   134c6:	f002                	sd	zero,32(sp)
   134c8:	8c3e                	mv	s8,a5
   134ca:	8f3a                	mv	t5,a4
   134cc:	4319                	li	t1,6
   134ce:	f40acce3          	bltz	s5,13426 <_vfprintf_r+0x1e0c>
   134d2:	e882                	sd	zero,80(sp)
   134d4:	b785                	j	13434 <_vfprintf_r+0x1e1a>
   134d6:	67e9                	lui	a5,0x1a
   134d8:	90878d93          	addi	s11,a5,-1784 # 19908 <__clzdi2+0xdc>
   134dc:	ffcff06f          	j	12cd8 <_vfprintf_r+0x16be>
   134e0:	06700e13          	li	t3,103
   134e4:	77a6                	ld	a5,104(sp)
   134e6:	0ff00693          	li	a3,255
   134ea:	0007c703          	lbu	a4,0(a5)
   134ee:	1ad70863          	beq	a4,a3,1369e <_vfprintf_r+0x2084>
   134f2:	4501                	li	a0,0
   134f4:	4581                	li	a1,0
   134f6:	0007061b          	sext.w	a2,a4
   134fa:	01875b63          	bge	a4,s8,13510 <_vfprintf_r+0x1ef6>
   134fe:	0017c703          	lbu	a4,1(a5)
   13502:	40cc0c3b          	subw	s8,s8,a2
   13506:	cf05                	beqz	a4,1353e <_vfprintf_r+0x1f24>
   13508:	2585                	addiw	a1,a1,1
   1350a:	0785                	addi	a5,a5,1
   1350c:	fed715e3          	bne	a4,a3,134f6 <_vfprintf_r+0x1edc>
   13510:	f4be                	sd	a5,104(sp)
   13512:	f82e                	sd	a1,48(sp)
   13514:	fc2a                	sd	a0,56(sp)
   13516:	77e2                	ld	a5,56(sp)
   13518:	7742                	ld	a4,48(sp)
   1351a:	9f3d                	addw	a4,a4,a5
   1351c:	77c6                	ld	a5,112(sp)
   1351e:	02f7073b          	mulw	a4,a4,a5
   13522:	01570abb          	addw	s5,a4,s5
   13526:	8856                	mv	a6,s5
   13528:	000ac663          	bltz	s5,13534 <_vfprintf_r+0x1f1a>
   1352c:	00080d1b          	sext.w	s10,a6
   13530:	ecefe06f          	j	11bfe <_vfprintf_r+0x5e4>
   13534:	4801                	li	a6,0
   13536:	00080d1b          	sext.w	s10,a6
   1353a:	ec4fe06f          	j	11bfe <_vfprintf_r+0x5e4>
   1353e:	0007c703          	lbu	a4,0(a5)
   13542:	2505                	addiw	a0,a0,1
   13544:	b7e1                	j	1350c <_vfprintf_r+0x1ef2>
   13546:	4601                	li	a2,0
   13548:	4681                	li	a3,0
   1354a:	8562                	mv	a0,s8
   1354c:	85d6                	mv	a1,s5
   1354e:	e11a                	sd	t1,128(sp)
   13550:	fcfa                	sd	t5,120(sp)
   13552:	fc72                	sd	t3,56(sp)
   13554:	0ba050ef          	jal	1860e <__eqtf2>
   13558:	7e62                	ld	t3,56(sp)
   1355a:	7f66                	ld	t5,120(sp)
   1355c:	630a                	ld	t1,128(sp)
   1355e:	e169                	bnez	a0,13620 <_vfprintf_r+0x2006>
   13560:	5c2a                	lw	s8,168(sp)
   13562:	9b62                	add	s6,s6,s8
   13564:	b905                	j	13194 <_vfprintf_r+0x1b7a>
   13566:	67e9                	lui	a5,0x1a
   13568:	90878d93          	addi	s11,a5,-1784 # 19908 <__clzdi2+0xdc>
   1356c:	bc71                	j	13008 <_vfprintf_r+0x19ee>
   1356e:	6922                	ld	s2,8(sp)
   13570:	e3ffe06f          	j	123ae <_vfprintf_r+0xd94>
   13574:	00031363          	bnez	t1,1357a <_vfprintf_r+0x1f60>
   13578:	8336                	mv	t1,a3
   1357a:	0c0ac163          	bltz	s5,1363c <_vfprintf_r+0x2022>
   1357e:	6502                	ld	a0,0(sp)
   13580:	871a                	mv	a4,t1
   13582:	0b810893          	addi	a7,sp,184
   13586:	0ac10813          	addi	a6,sp,172
   1358a:	113c                	addi	a5,sp,168
   1358c:	4689                	li	a3,2
   1358e:	85e2                	mv	a1,s8
   13590:	8656                	mv	a2,s5
   13592:	f07a                	sd	t5,32(sp)
   13594:	fc72                	sd	t3,56(sp)
   13596:	f41a                	sd	t1,40(sp)
   13598:	7ed000ef          	jal	14584 <_ldtoa_r>
   1359c:	7f02                	ld	t5,32(sp)
   1359e:	7322                	ld	t1,40(sp)
   135a0:	7e62                	ld	t3,56(sp)
   135a2:	f87a                	sd	t5,48(sp)
   135a4:	8daa                	mv	s11,a0
   135a6:	8f5a                	mv	t5,s6
   135a8:	e882                	sd	zero,80(sp)
   135aa:	f002                	sd	zero,32(sp)
   135ac:	b53d                	j	133da <_vfprintf_r+0x1dc0>
   135ae:	04700693          	li	a3,71
   135b2:	5c2a                	lw	s8,168(sp)
   135b4:	b8d91be3          	bne	s2,a3,1314a <_vfprintf_r+0x1b30>
   135b8:	b6ed                	j	131a2 <_vfprintf_r+0x1b88>
   135ba:	6786                	ld	a5,64(sp)
   135bc:	018308bb          	addw	a7,t1,s8
   135c0:	06600e13          	li	t3,102
   135c4:	00f88abb          	addw	s5,a7,a5
   135c8:	b951                	j	1325c <_vfprintf_r+0x1c42>
   135ca:	894e                	mv	s2,s3
   135cc:	01ad86bb          	addw	a3,s11,s10
   135d0:	412686bb          	subw	a3,a3,s2
   135d4:	7ba2                	ld	s7,40(sp)
   135d6:	79e2                	ld	s3,56(sp)
   135d8:	6e66                	ld	t3,88(sp)
   135da:	0006d463          	bgez	a3,135e2 <_vfprintf_r+0x1fc8>
   135de:	d28fe06f          	j	11b06 <_vfprintf_r+0x4ec>
   135e2:	00168613          	addi	a2,a3,1
   135e6:	964a                	add	a2,a2,s2
   135e8:	874a                	mv	a4,s2
   135ea:	03000593          	li	a1,48
   135ee:	0705                	addi	a4,a4,1
   135f0:	feb70fa3          	sb	a1,-1(a4)
   135f4:	fec71de3          	bne	a4,a2,135ee <_vfprintf_r+0x1fd4>
   135f8:	00190793          	addi	a5,s2,1
   135fc:	00d78933          	add	s2,a5,a3
   13600:	d06fe06f          	j	11b06 <_vfprintf_r+0x4ec>
   13604:	07000613          	li	a2,112
   13608:	d2afe06f          	j	11b32 <_vfprintf_r+0x518>
   1360c:	6769                	lui	a4,0x1a
   1360e:	bf870913          	addi	s2,a4,-1032 # 19bf8 <zeroes.0>
   13612:	e32ff06f          	j	12c44 <_vfprintf_r+0x162a>
   13616:	6769                	lui	a4,0x1a
   13618:	91870a93          	addi	s5,a4,-1768 # 19918 <__clzdi2+0xec>
   1361c:	bfcfe06f          	j	11a18 <_vfprintf_r+0x3fe>
   13620:	77a2                	ld	a5,40(sp)
   13622:	4685                	li	a3,1
   13624:	9e9d                	subw	a3,a3,a5
   13626:	d536                	sw	a3,168(sp)
   13628:	b6ed                	j	13212 <_vfprintf_r+0x1bf8>
   1362a:	7d82                	ld	s11,32(sp)
   1362c:	bbed                	j	13426 <_vfprintf_r+0x1e0c>
   1362e:	f002                	sd	zero,32(sp)
   13630:	8f5a                	mv	t5,s6
   13632:	bbd5                	j	13426 <_vfprintf_r+0x1e0c>
   13634:	00aac683          	lbu	a3,10(s5)
   13638:	ccafe06f          	j	11b02 <_vfprintf_r+0x4e8>
   1363c:	177e                	slli	a4,a4,0x3f
   1363e:	02d00793          	li	a5,45
   13642:	f87a                	sd	t5,48(sp)
   13644:	00eacab3          	xor	s5,s5,a4
   13648:	f002                	sd	zero,32(sp)
   1364a:	8f5a                	mv	t5,s6
   1364c:	e8be                	sd	a5,80(sp)
   1364e:	bbdd                	j	13444 <_vfprintf_r+0x1e2a>
   13650:	6762                	ld	a4,24(sp)
   13652:	431c                	lw	a5,0(a4)
   13654:	0721                	addi	a4,a4,8
   13656:	833e                	mv	t1,a5
   13658:	0007d363          	bgez	a5,1365e <_vfprintf_r+0x2044>
   1365c:	537d                	li	t1,-1
   1365e:	001bce03          	lbu	t3,1(s7)
   13662:	00030b1b          	sext.w	s6,t1
   13666:	ec3a                	sd	a4,24(sp)
   13668:	8bb2                	mv	s7,a2
   1366a:	8ccfe06f          	j	11736 <_vfprintf_r+0x11c>
   1366e:	4789                	li	a5,2
   13670:	ecbe                	sd	a5,88(sp)
   13672:	d56fe06f          	j	11bc8 <_vfprintf_r+0x5ae>
   13676:	e711                	bnez	a4,13682 <_vfprintf_r+0x2068>
   13678:	4d05                	li	s10,1
   1367a:	8aea                	mv	s5,s10
   1367c:	06600e13          	li	t3,102
   13680:	beb5                	j	131fc <_vfprintf_r+0x1be2>
   13682:	6786                	ld	a5,64(sp)
   13684:	0017889b          	addiw	a7,a5,1
   13688:	00688abb          	addw	s5,a7,t1
   1368c:	8856                	mv	a6,s5
   1368e:	000ad363          	bgez	s5,13694 <_vfprintf_r+0x207a>
   13692:	4801                	li	a6,0
   13694:	00080d1b          	sext.w	s10,a6
   13698:	06600e13          	li	t3,102
   1369c:	b685                	j	131fc <_vfprintf_r+0x1be2>
   1369e:	fc02                	sd	zero,56(sp)
   136a0:	f802                	sd	zero,48(sp)
   136a2:	bd95                	j	13516 <_vfprintf_r+0x1efc>
   136a4:	6769                	lui	a4,0x1a
   136a6:	bf870913          	addi	s2,a4,-1032 # 19bf8 <zeroes.0>
   136aa:	b3d1                	j	1346e <_vfprintf_r+0x1e54>
   136ac:	6922                	ld	s2,8(sp)
   136ae:	01095783          	lhu	a5,16(s2)
   136b2:	0407e793          	ori	a5,a5,64
   136b6:	00f91823          	sh	a5,16(s2)
   136ba:	cf5fe06f          	j	123ae <_vfprintf_r+0xd94>
   136be:	4d05                	li	s10,1
   136c0:	f802                	sd	zero,48(sp)
   136c2:	fc02                	sd	zero,56(sp)
   136c4:	8aea                	mv	s5,s10
   136c6:	f002                	sd	zero,32(sp)
   136c8:	4c01                	li	s8,0
   136ca:	14b10d93          	addi	s11,sp,331
   136ce:	07800e13          	li	t3,120
   136d2:	4501                	li	a0,0
   136d4:	d46fe06f          	j	11c1a <_vfprintf_r+0x600>
   136d8:	f41a                	sd	t1,40(sp)
   136da:	bc01                	j	130ea <_vfprintf_r+0x1ad0>
   136dc:	4301                	li	t1,0
   136de:	fc02                	sd	zero,56(sp)
   136e0:	f802                	sd	zero,48(sp)
   136e2:	f002                	sd	zero,32(sp)
   136e4:	4a8d                	li	s5,3
   136e6:	4d11                	li	s10,4
   136e8:	8c0fe06f          	j	117a8 <_vfprintf_r+0x18e>
   136ec:	41b787bb          	subw	a5,a5,s11
   136f0:	04700693          	li	a3,71
   136f4:	f43e                	sd	a5,40(sp)
   136f6:	5c2a                	lw	s8,168(sp)
   136f8:	a4d919e3          	bne	s2,a3,1314a <_vfprintf_r+0x1b30>
   136fc:	b45d                	j	131a2 <_vfprintf_r+0x1b88>

00000000000136fe <vfprintf>:
   136fe:	872a                	mv	a4,a0
   13700:	2201b503          	ld	a0,544(gp) # 1bcb0 <_impure_ptr>
   13704:	87ae                	mv	a5,a1
   13706:	86b2                	mv	a3,a2
   13708:	85ba                	mv	a1,a4
   1370a:	863e                	mv	a2,a5
   1370c:	f0ffd06f          	j	1161a <_vfprintf_r>

0000000000013710 <__sbprintf>:
   13710:	0105d783          	lhu	a5,16(a1)
   13714:	0ac5ae83          	lw	t4,172(a1)
   13718:	0125de03          	lhu	t3,18(a1)
   1371c:	0305b303          	ld	t1,48(a1)
   13720:	0405b883          	ld	a7,64(a1)
   13724:	b3010113          	addi	sp,sp,-1232
   13728:	0b010813          	addi	a6,sp,176
   1372c:	40000713          	li	a4,1024
   13730:	4c813023          	sd	s0,1216(sp)
   13734:	9bf5                	andi	a5,a5,-3
   13736:	842e                	mv	s0,a1
   13738:	858a                	mv	a1,sp
   1373a:	4a913c23          	sd	s1,1208(sp)
   1373e:	4b213823          	sd	s2,1200(sp)
   13742:	4c113423          	sd	ra,1224(sp)
   13746:	d402                	sw	zero,40(sp)
   13748:	00f11823          	sh	a5,16(sp)
   1374c:	d776                	sw	t4,172(sp)
   1374e:	01c11923          	sh	t3,18(sp)
   13752:	f81a                	sd	t1,48(sp)
   13754:	e0c6                	sd	a7,64(sp)
   13756:	892a                	mv	s2,a0
   13758:	e042                	sd	a6,0(sp)
   1375a:	ec42                	sd	a6,24(sp)
   1375c:	c63a                	sw	a4,12(sp)
   1375e:	d03a                	sw	a4,32(sp)
   13760:	ebbfd0ef          	jal	1161a <_vfprintf_r>
   13764:	84aa                	mv	s1,a0
   13766:	02055963          	bgez	a0,13798 <__sbprintf+0x88>
   1376a:	01015783          	lhu	a5,16(sp)
   1376e:	0407f793          	andi	a5,a5,64
   13772:	c799                	beqz	a5,13780 <__sbprintf+0x70>
   13774:	01045783          	lhu	a5,16(s0)
   13778:	0407e793          	ori	a5,a5,64
   1377c:	00f41823          	sh	a5,16(s0)
   13780:	4c813083          	ld	ra,1224(sp)
   13784:	4c013403          	ld	s0,1216(sp)
   13788:	4b013903          	ld	s2,1200(sp)
   1378c:	8526                	mv	a0,s1
   1378e:	4b813483          	ld	s1,1208(sp)
   13792:	4d010113          	addi	sp,sp,1232
   13796:	8082                	ret
   13798:	858a                	mv	a1,sp
   1379a:	854a                	mv	a0,s2
   1379c:	280000ef          	jal	13a1c <_fflush_r>
   137a0:	d569                	beqz	a0,1376a <__sbprintf+0x5a>
   137a2:	54fd                	li	s1,-1
   137a4:	b7d9                	j	1376a <__sbprintf+0x5a>

00000000000137a6 <__sprint_r>:
   137a6:	6a1c                	ld	a5,16(a2)
   137a8:	1141                	addi	sp,sp,-16
   137aa:	e022                	sd	s0,0(sp)
   137ac:	e406                	sd	ra,8(sp)
   137ae:	8432                	mv	s0,a2
   137b0:	eb81                	bnez	a5,137c0 <__sprint_r+0x1a>
   137b2:	60a2                	ld	ra,8(sp)
   137b4:	00042423          	sw	zero,8(s0)
   137b8:	6402                	ld	s0,0(sp)
   137ba:	4501                	li	a0,0
   137bc:	0141                	addi	sp,sp,16
   137be:	8082                	ret
   137c0:	2e2000ef          	jal	13aa2 <__sfvwrite_r>
   137c4:	60a2                	ld	ra,8(sp)
   137c6:	00043823          	sd	zero,16(s0)
   137ca:	00042423          	sw	zero,8(s0)
   137ce:	6402                	ld	s0,0(sp)
   137d0:	0141                	addi	sp,sp,16
   137d2:	8082                	ret

00000000000137d4 <_fclose_r>:
   137d4:	1101                	addi	sp,sp,-32
   137d6:	ec06                	sd	ra,24(sp)
   137d8:	e04a                	sd	s2,0(sp)
   137da:	cd89                	beqz	a1,137f4 <_fclose_r+0x20>
   137dc:	e822                	sd	s0,16(sp)
   137de:	e426                	sd	s1,8(sp)
   137e0:	842e                	mv	s0,a1
   137e2:	84aa                	mv	s1,a0
   137e4:	c119                	beqz	a0,137ea <_fclose_r+0x16>
   137e6:	653c                	ld	a5,72(a0)
   137e8:	c7d9                	beqz	a5,13876 <_fclose_r+0xa2>
   137ea:	01041783          	lh	a5,16(s0)
   137ee:	eb89                	bnez	a5,13800 <_fclose_r+0x2c>
   137f0:	6442                	ld	s0,16(sp)
   137f2:	64a2                	ld	s1,8(sp)
   137f4:	60e2                	ld	ra,24(sp)
   137f6:	4901                	li	s2,0
   137f8:	854a                	mv	a0,s2
   137fa:	6902                	ld	s2,0(sp)
   137fc:	6105                	addi	sp,sp,32
   137fe:	8082                	ret
   13800:	85a2                	mv	a1,s0
   13802:	8526                	mv	a0,s1
   13804:	080000ef          	jal	13884 <__sflush_r>
   13808:	683c                	ld	a5,80(s0)
   1380a:	892a                	mv	s2,a0
   1380c:	c791                	beqz	a5,13818 <_fclose_r+0x44>
   1380e:	780c                	ld	a1,48(s0)
   13810:	8526                	mv	a0,s1
   13812:	9782                	jalr	a5
   13814:	04054663          	bltz	a0,13860 <_fclose_r+0x8c>
   13818:	01045783          	lhu	a5,16(s0)
   1381c:	0807f793          	andi	a5,a5,128
   13820:	e7b1                	bnez	a5,1386c <_fclose_r+0x98>
   13822:	6c2c                	ld	a1,88(s0)
   13824:	c991                	beqz	a1,13838 <_fclose_r+0x64>
   13826:	07440793          	addi	a5,s0,116
   1382a:	00f58563          	beq	a1,a5,13834 <_fclose_r+0x60>
   1382e:	8526                	mv	a0,s1
   13830:	d78fd0ef          	jal	10da8 <_free_r>
   13834:	04043c23          	sd	zero,88(s0)
   13838:	7c2c                	ld	a1,120(s0)
   1383a:	c591                	beqz	a1,13846 <_fclose_r+0x72>
   1383c:	8526                	mv	a0,s1
   1383e:	d6afd0ef          	jal	10da8 <_free_r>
   13842:	06043c23          	sd	zero,120(s0)
   13846:	e31fc0ef          	jal	10676 <__sfp_lock_acquire>
   1384a:	00041823          	sh	zero,16(s0)
   1384e:	e2bfc0ef          	jal	10678 <__sfp_lock_release>
   13852:	60e2                	ld	ra,24(sp)
   13854:	6442                	ld	s0,16(sp)
   13856:	64a2                	ld	s1,8(sp)
   13858:	854a                	mv	a0,s2
   1385a:	6902                	ld	s2,0(sp)
   1385c:	6105                	addi	sp,sp,32
   1385e:	8082                	ret
   13860:	01045783          	lhu	a5,16(s0)
   13864:	597d                	li	s2,-1
   13866:	0807f793          	andi	a5,a5,128
   1386a:	dfc5                	beqz	a5,13822 <_fclose_r+0x4e>
   1386c:	6c0c                	ld	a1,24(s0)
   1386e:	8526                	mv	a0,s1
   13870:	d38fd0ef          	jal	10da8 <_free_r>
   13874:	b77d                	j	13822 <_fclose_r+0x4e>
   13876:	debfc0ef          	jal	10660 <__sinit>
   1387a:	bf85                	j	137ea <_fclose_r+0x16>

000000000001387c <fclose>:
   1387c:	85aa                	mv	a1,a0
   1387e:	2201b503          	ld	a0,544(gp) # 1bcb0 <_impure_ptr>
   13882:	bf89                	j	137d4 <_fclose_r>

0000000000013884 <__sflush_r>:
   13884:	01059703          	lh	a4,16(a1)
   13888:	7179                	addi	sp,sp,-48
   1388a:	f022                	sd	s0,32(sp)
   1388c:	e44e                	sd	s3,8(sp)
   1388e:	f406                	sd	ra,40(sp)
   13890:	00877793          	andi	a5,a4,8
   13894:	842e                	mv	s0,a1
   13896:	89aa                	mv	s3,a0
   13898:	e7e1                	bnez	a5,13960 <__sflush_r+0xdc>
   1389a:	6785                	lui	a5,0x1
   1389c:	80078793          	addi	a5,a5,-2048 # 800 <exit-0xf920>
   138a0:	4594                	lw	a3,8(a1)
   138a2:	8fd9                	or	a5,a5,a4
   138a4:	00f59823          	sh	a5,16(a1)
   138a8:	10d05963          	blez	a3,139ba <__sflush_r+0x136>
   138ac:	04843803          	ld	a6,72(s0)
   138b0:	0a080263          	beqz	a6,13954 <__sflush_r+0xd0>
   138b4:	ec26                	sd	s1,24(sp)
   138b6:	03371693          	slli	a3,a4,0x33
   138ba:	0009a483          	lw	s1,0(s3)
   138be:	0009a023          	sw	zero,0(s3)
   138c2:	1006c363          	bltz	a3,139c8 <__sflush_r+0x144>
   138c6:	780c                	ld	a1,48(s0)
   138c8:	4601                	li	a2,0
   138ca:	4685                	li	a3,1
   138cc:	854e                	mv	a0,s3
   138ce:	9802                	jalr	a6
   138d0:	57fd                	li	a5,-1
   138d2:	862a                	mv	a2,a0
   138d4:	12f50163          	beq	a0,a5,139f6 <__sflush_r+0x172>
   138d8:	01041783          	lh	a5,16(s0)
   138dc:	04843803          	ld	a6,72(s0)
   138e0:	8b91                	andi	a5,a5,4
   138e2:	c799                	beqz	a5,138f0 <__sflush_r+0x6c>
   138e4:	4418                	lw	a4,8(s0)
   138e6:	6c3c                	ld	a5,88(s0)
   138e8:	8e19                	sub	a2,a2,a4
   138ea:	c399                	beqz	a5,138f0 <__sflush_r+0x6c>
   138ec:	583c                	lw	a5,112(s0)
   138ee:	8e1d                	sub	a2,a2,a5
   138f0:	780c                	ld	a1,48(s0)
   138f2:	4681                	li	a3,0
   138f4:	854e                	mv	a0,s3
   138f6:	9802                	jalr	a6
   138f8:	577d                	li	a4,-1
   138fa:	01041783          	lh	a5,16(s0)
   138fe:	0ce51763          	bne	a0,a4,139cc <__sflush_r+0x148>
   13902:	0009a683          	lw	a3,0(s3)
   13906:	4775                	li	a4,29
   13908:	10d76363          	bltu	a4,a3,13a0e <__sflush_r+0x18a>
   1390c:	20400737          	lui	a4,0x20400
   13910:	0705                	addi	a4,a4,1 # 20400001 <__BSS_END__+0x203e3d71>
   13912:	00d75733          	srl	a4,a4,a3
   13916:	8b05                	andi	a4,a4,1
   13918:	cb7d                	beqz	a4,13a0e <__sflush_r+0x18a>
   1391a:	6c10                	ld	a2,24(s0)
   1391c:	777d                	lui	a4,0xfffff
   1391e:	7ff70713          	addi	a4,a4,2047 # fffffffffffff7ff <__BSS_END__+0xfffffffffffe356f>
   13922:	8f7d                	and	a4,a4,a5
   13924:	00e41823          	sh	a4,16(s0)
   13928:	00042423          	sw	zero,8(s0)
   1392c:	e010                	sd	a2,0(s0)
   1392e:	03379713          	slli	a4,a5,0x33
   13932:	00075363          	bgez	a4,13938 <__sflush_r+0xb4>
   13936:	cacd                	beqz	a3,139e8 <__sflush_r+0x164>
   13938:	6c2c                	ld	a1,88(s0)
   1393a:	0099a023          	sw	s1,0(s3)
   1393e:	c9d5                	beqz	a1,139f2 <__sflush_r+0x16e>
   13940:	07440793          	addi	a5,s0,116
   13944:	00f58563          	beq	a1,a5,1394e <__sflush_r+0xca>
   13948:	854e                	mv	a0,s3
   1394a:	c5efd0ef          	jal	10da8 <_free_r>
   1394e:	64e2                	ld	s1,24(sp)
   13950:	04043c23          	sd	zero,88(s0)
   13954:	70a2                	ld	ra,40(sp)
   13956:	7402                	ld	s0,32(sp)
   13958:	69a2                	ld	s3,8(sp)
   1395a:	4501                	li	a0,0
   1395c:	6145                	addi	sp,sp,48
   1395e:	8082                	ret
   13960:	e84a                	sd	s2,16(sp)
   13962:	0185b903          	ld	s2,24(a1)
   13966:	04090f63          	beqz	s2,139c4 <__sflush_r+0x140>
   1396a:	ec26                	sd	s1,24(sp)
   1396c:	6184                	ld	s1,0(a1)
   1396e:	8b0d                	andi	a4,a4,3
   13970:	0125b023          	sd	s2,0(a1)
   13974:	412484bb          	subw	s1,s1,s2
   13978:	4781                	li	a5,0
   1397a:	e311                	bnez	a4,1397e <__sflush_r+0xfa>
   1397c:	519c                	lw	a5,32(a1)
   1397e:	c45c                	sw	a5,12(s0)
   13980:	00904663          	bgtz	s1,1398c <__sflush_r+0x108>
   13984:	a83d                	j	139c2 <__sflush_r+0x13e>
   13986:	992a                	add	s2,s2,a0
   13988:	02905d63          	blez	s1,139c2 <__sflush_r+0x13e>
   1398c:	603c                	ld	a5,64(s0)
   1398e:	780c                	ld	a1,48(s0)
   13990:	86a6                	mv	a3,s1
   13992:	864a                	mv	a2,s2
   13994:	854e                	mv	a0,s3
   13996:	9782                	jalr	a5
   13998:	9c89                	subw	s1,s1,a0
   1399a:	fea046e3          	bgtz	a0,13986 <__sflush_r+0x102>
   1399e:	01041783          	lh	a5,16(s0)
   139a2:	6942                	ld	s2,16(sp)
   139a4:	0407e793          	ori	a5,a5,64
   139a8:	70a2                	ld	ra,40(sp)
   139aa:	00f41823          	sh	a5,16(s0)
   139ae:	7402                	ld	s0,32(sp)
   139b0:	64e2                	ld	s1,24(sp)
   139b2:	69a2                	ld	s3,8(sp)
   139b4:	557d                	li	a0,-1
   139b6:	6145                	addi	sp,sp,48
   139b8:	8082                	ret
   139ba:	59b4                	lw	a3,112(a1)
   139bc:	eed048e3          	bgtz	a3,138ac <__sflush_r+0x28>
   139c0:	bf51                	j	13954 <__sflush_r+0xd0>
   139c2:	64e2                	ld	s1,24(sp)
   139c4:	6942                	ld	s2,16(sp)
   139c6:	b779                	j	13954 <__sflush_r+0xd0>
   139c8:	6850                	ld	a2,144(s0)
   139ca:	bf19                	j	138e0 <__sflush_r+0x5c>
   139cc:	6c14                	ld	a3,24(s0)
   139ce:	777d                	lui	a4,0xfffff
   139d0:	7ff70713          	addi	a4,a4,2047 # fffffffffffff7ff <__BSS_END__+0xfffffffffffe356f>
   139d4:	8f7d                	and	a4,a4,a5
   139d6:	00e41823          	sh	a4,16(s0)
   139da:	00042423          	sw	zero,8(s0)
   139de:	e014                	sd	a3,0(s0)
   139e0:	03379713          	slli	a4,a5,0x33
   139e4:	f4075ae3          	bgez	a4,13938 <__sflush_r+0xb4>
   139e8:	6c2c                	ld	a1,88(s0)
   139ea:	e848                	sd	a0,144(s0)
   139ec:	0099a023          	sw	s1,0(s3)
   139f0:	f9a1                	bnez	a1,13940 <__sflush_r+0xbc>
   139f2:	64e2                	ld	s1,24(sp)
   139f4:	b785                	j	13954 <__sflush_r+0xd0>
   139f6:	0009a783          	lw	a5,0(s3)
   139fa:	ec078fe3          	beqz	a5,138d8 <__sflush_r+0x54>
   139fe:	4775                	li	a4,29
   13a00:	00e78a63          	beq	a5,a4,13a14 <__sflush_r+0x190>
   13a04:	4759                	li	a4,22
   13a06:	00e78763          	beq	a5,a4,13a14 <__sflush_r+0x190>
   13a0a:	01041783          	lh	a5,16(s0)
   13a0e:	0407e793          	ori	a5,a5,64
   13a12:	bf59                	j	139a8 <__sflush_r+0x124>
   13a14:	0099a023          	sw	s1,0(s3)
   13a18:	64e2                	ld	s1,24(sp)
   13a1a:	bf2d                	j	13954 <__sflush_r+0xd0>

0000000000013a1c <_fflush_r>:
   13a1c:	1101                	addi	sp,sp,-32
   13a1e:	e822                	sd	s0,16(sp)
   13a20:	ec06                	sd	ra,24(sp)
   13a22:	842a                	mv	s0,a0
   13a24:	c119                	beqz	a0,13a2a <_fflush_r+0xe>
   13a26:	653c                	ld	a5,72(a0)
   13a28:	cf91                	beqz	a5,13a44 <_fflush_r+0x28>
   13a2a:	01059783          	lh	a5,16(a1)
   13a2e:	e791                	bnez	a5,13a3a <_fflush_r+0x1e>
   13a30:	60e2                	ld	ra,24(sp)
   13a32:	6442                	ld	s0,16(sp)
   13a34:	4501                	li	a0,0
   13a36:	6105                	addi	sp,sp,32
   13a38:	8082                	ret
   13a3a:	8522                	mv	a0,s0
   13a3c:	6442                	ld	s0,16(sp)
   13a3e:	60e2                	ld	ra,24(sp)
   13a40:	6105                	addi	sp,sp,32
   13a42:	b589                	j	13884 <__sflush_r>
   13a44:	e42e                	sd	a1,8(sp)
   13a46:	c1bfc0ef          	jal	10660 <__sinit>
   13a4a:	65a2                	ld	a1,8(sp)
   13a4c:	bff9                	j	13a2a <_fflush_r+0xe>

0000000000013a4e <fflush>:
   13a4e:	cd05                	beqz	a0,13a86 <fflush+0x38>
   13a50:	85aa                	mv	a1,a0
   13a52:	2201b503          	ld	a0,544(gp) # 1bcb0 <_impure_ptr>
   13a56:	c119                	beqz	a0,13a5c <fflush+0xe>
   13a58:	653c                	ld	a5,72(a0)
   13a5a:	c799                	beqz	a5,13a68 <fflush+0x1a>
   13a5c:	01059783          	lh	a5,16(a1)
   13a60:	e399                	bnez	a5,13a66 <fflush+0x18>
   13a62:	4501                	li	a0,0
   13a64:	8082                	ret
   13a66:	bd39                	j	13884 <__sflush_r>
   13a68:	1101                	addi	sp,sp,-32
   13a6a:	e42e                	sd	a1,8(sp)
   13a6c:	e02a                	sd	a0,0(sp)
   13a6e:	ec06                	sd	ra,24(sp)
   13a70:	bf1fc0ef          	jal	10660 <__sinit>
   13a74:	65a2                	ld	a1,8(sp)
   13a76:	6502                	ld	a0,0(sp)
   13a78:	01059783          	lh	a5,16(a1)
   13a7c:	e385                	bnez	a5,13a9c <fflush+0x4e>
   13a7e:	60e2                	ld	ra,24(sp)
   13a80:	4501                	li	a0,0
   13a82:	6105                	addi	sp,sp,32
   13a84:	8082                	ret
   13a86:	666d                	lui	a2,0x1b
   13a88:	65d1                	lui	a1,0x14
   13a8a:	656d                	lui	a0,0x1b
   13a8c:	10860613          	addi	a2,a2,264 # 1b108 <__sglue>
   13a90:	a1c58593          	addi	a1,a1,-1508 # 13a1c <_fflush_r>
   13a94:	12050513          	addi	a0,a0,288 # 1b120 <_impure_data>
   13a98:	c03fc06f          	j	1069a <_fwalk_sglue>
   13a9c:	60e2                	ld	ra,24(sp)
   13a9e:	6105                	addi	sp,sp,32
   13aa0:	b3d5                	j	13884 <__sflush_r>

0000000000013aa2 <__sfvwrite_r>:
   13aa2:	6a1c                	ld	a5,16(a2)
   13aa4:	1a078063          	beqz	a5,13c44 <__sfvwrite_r+0x1a2>
   13aa8:	01059703          	lh	a4,16(a1)
   13aac:	711d                	addi	sp,sp,-96
   13aae:	e8a2                	sd	s0,80(sp)
   13ab0:	f852                	sd	s4,48(sp)
   13ab2:	f05a                	sd	s6,32(sp)
   13ab4:	ec86                	sd	ra,88(sp)
   13ab6:	00877793          	andi	a5,a4,8
   13aba:	8a32                	mv	s4,a2
   13abc:	8b2a                	mv	s6,a0
   13abe:	842e                	mv	s0,a1
   13ac0:	c7bd                	beqz	a5,13b2e <__sfvwrite_r+0x8c>
   13ac2:	6d9c                	ld	a5,24(a1)
   13ac4:	c7ad                	beqz	a5,13b2e <__sfvwrite_r+0x8c>
