	.file	"matrixmultiplication.c"
	.option nopic
	.attribute arch, "rv64i2p1_m2p0_a2p1_f2p2_d2p2_c2p0_zicsr2p0_zifencei2p0"
	.attribute unaligned_access, 0
	.attribute stack_align, 16
	.text
	.align	1
	.globl	multiplyMatrices
	.type	multiplyMatrices, @function
multiplyMatrices:
.LFB0:
	.cfi_startproc
	addi	sp,sp,-64
	.cfi_def_cfa_offset 64
	sd	ra,56(sp)
	sd	s0,48(sp)
	.cfi_offset 1, -8
	.cfi_offset 8, -16
	addi	s0,sp,64
	.cfi_def_cfa 8, 0
	sd	a0,-40(s0)
	sd	a1,-48(s0)
	sd	a2,-56(s0)
	sw	zero,-20(s0)
	j	.L2
.L7:
	sw	zero,-24(s0)
	j	.L3
.L6:
	lw	a4,-20(s0)
	mv	a5,a4
	slli	a5,a5,1
	add	a5,a5,a4
	slli	a5,a5,2
	mv	a4,a5
	ld	a5,-56(s0)
	add	a4,a5,a4
	lw	a5,-24(s0)
	slli	a5,a5,2
	add	a5,a4,a5
	sw	zero,0(a5)
	sw	zero,-28(s0)
	j	.L4
.L5:
	lw	a4,-20(s0)
	mv	a5,a4
	slli	a5,a5,1
	add	a5,a5,a4
	slli	a5,a5,2
	mv	a4,a5
	ld	a5,-56(s0)
	add	a4,a5,a4
	lw	a5,-24(s0)
	slli	a5,a5,2
	add	a5,a4,a5
	lw	a1,0(a5)
	lw	a4,-20(s0)
	mv	a5,a4
	slli	a5,a5,1
	add	a5,a5,a4
	slli	a5,a5,2
	mv	a4,a5
	ld	a5,-40(s0)
	add	a4,a5,a4
	lw	a5,-28(s0)
	slli	a5,a5,2
	add	a5,a4,a5
	lw	a3,0(a5)
	lw	a4,-28(s0)
	mv	a5,a4
	slli	a5,a5,1
	add	a5,a5,a4
	slli	a5,a5,2
	mv	a4,a5
	ld	a5,-48(s0)
	add	a4,a5,a4
	lw	a5,-24(s0)
	slli	a5,a5,2
	add	a5,a4,a5
	lw	a5,0(a5)
	mulw	a5,a3,a5
	sext.w	a2,a5
	lw	a4,-20(s0)
	mv	a5,a4
	slli	a5,a5,1
	add	a5,a5,a4
	slli	a5,a5,2
	mv	a4,a5
	ld	a5,-56(s0)
	add	a3,a5,a4
	addw	a5,a1,a2
	sext.w	a4,a5
	lw	a5,-24(s0)
	slli	a5,a5,2
	add	a5,a3,a5
	sw	a4,0(a5)
	lw	a5,-28(s0)
	addiw	a5,a5,1
	sw	a5,-28(s0)
.L4:
	lw	a5,-28(s0)
	sext.w	a4,a5
	li	a5,2
	ble	a4,a5,.L5
	lw	a5,-24(s0)
	addiw	a5,a5,1
	sw	a5,-24(s0)
.L3:
	lw	a5,-24(s0)
	sext.w	a4,a5
	li	a5,2
	ble	a4,a5,.L6
	lw	a5,-20(s0)
	addiw	a5,a5,1
	sw	a5,-20(s0)
.L2:
	lw	a5,-20(s0)
	sext.w	a4,a5
	li	a5,2
	ble	a4,a5,.L7
	nop
	nop
	ld	ra,56(sp)
	.cfi_restore 1
	ld	s0,48(sp)
	.cfi_restore 8
	.cfi_def_cfa 2, 64
	addi	sp,sp,64
	.cfi_def_cfa_offset 0
	jr	ra
	.cfi_endproc
.LFE0:
	.size	multiplyMatrices, .-multiplyMatrices
	.section	.rodata
	.align	3
.LC2:
	.string	"%d "
	.text
	.align	1
	.globl	printMatrix
	.type	printMatrix, @function
printMatrix:
.LFB1:
	.cfi_startproc
	addi	sp,sp,-48
	.cfi_def_cfa_offset 48
	sd	ra,40(sp)
	sd	s0,32(sp)
	.cfi_offset 1, -8
	.cfi_offset 8, -16
	addi	s0,sp,48
	.cfi_def_cfa 8, 0
	sd	a0,-40(s0)
	sw	zero,-20(s0)
	j	.L9
.L12:
	sw	zero,-24(s0)
	j	.L10
.L11:
	lw	a4,-20(s0)
	mv	a5,a4
	slli	a5,a5,1
	add	a5,a5,a4
	slli	a5,a5,2
	mv	a4,a5
	ld	a5,-40(s0)
	add	a4,a5,a4
	lw	a5,-24(s0)
	slli	a5,a5,2
	add	a5,a4,a5
	lw	a5,0(a5)
	mv	a1,a5
	lui	a5,%hi(.LC2)
	addi	a0,a5,%lo(.LC2)
	call	printf
	lw	a5,-24(s0)
	addiw	a5,a5,1
	sw	a5,-24(s0)
.L10:
	lw	a5,-24(s0)
	sext.w	a4,a5
	li	a5,2
	ble	a4,a5,.L11
	li	a0,10
	call	putchar
	lw	a5,-20(s0)
	addiw	a5,a5,1
	sw	a5,-20(s0)
.L9:
	lw	a5,-20(s0)
	sext.w	a4,a5
	li	a5,2
	ble	a4,a5,.L12
	nop
	nop
	ld	ra,40(sp)
	.cfi_restore 1
	ld	s0,32(sp)
	.cfi_restore 8
	.cfi_def_cfa 2, 48
	addi	sp,sp,48
	.cfi_def_cfa_offset 0
	jr	ra
	.cfi_endproc
.LFE1:
	.size	printMatrix, .-printMatrix
	.section	.rodata
	.align	3
.LC3:
	.string	"First Matrix:"
	.align	3
.LC4:
	.string	"Second Matrix:"
	.align	3
.LC5:
	.string	"Resultant Matrix:"
	.align	3
.LC0:
	.word	1
	.word	2
	.word	3
	.word	4
	.word	5
	.word	6
	.word	7
	.word	8
	.word	9
	.align	3
.LC1:
	.word	9
	.word	8
	.word	7
	.word	6
	.word	5
	.word	4
	.word	3
	.word	2
	.word	1
	.text
	.align	1
	.globl	main
	.type	main, @function
main:
.LFB2:
	.cfi_startproc
	addi	sp,sp,-144
	.cfi_def_cfa_offset 144
	sd	ra,136(sp)
	sd	s0,128(sp)
	.cfi_offset 1, -8
	.cfi_offset 8, -16
	addi	s0,sp,144
	.cfi_def_cfa 8, 0
	lui	a5,%hi(.LC0)
	addi	a5,a5,%lo(.LC0)
	ld	a1,0(a5)
	ld	a2,8(a5)
	ld	a3,16(a5)
	ld	a4,24(a5)
	sd	a1,-56(s0)
	sd	a2,-48(s0)
	sd	a3,-40(s0)
	sd	a4,-32(s0)
	lw	a5,32(a5)
	sw	a5,-24(s0)
	lui	a5,%hi(.LC1)
	addi	a5,a5,%lo(.LC1)
	ld	a1,0(a5)
	ld	a2,8(a5)
	ld	a3,16(a5)
	ld	a4,24(a5)
	sd	a1,-96(s0)
	sd	a2,-88(s0)
	sd	a3,-80(s0)
	sd	a4,-72(s0)
	lw	a5,32(a5)
	sw	a5,-64(s0)
	lui	a5,%hi(.LC3)
	addi	a0,a5,%lo(.LC3)
	call	puts
	addi	a5,s0,-56
	mv	a0,a5
	call	printMatrix
	lui	a5,%hi(.LC4)
	addi	a0,a5,%lo(.LC4)
	call	puts
	addi	a5,s0,-96
	mv	a0,a5
	call	printMatrix
	addi	a3,s0,-136
	addi	a4,s0,-96
	addi	a5,s0,-56
	mv	a2,a3
	mv	a1,a4
	mv	a0,a5
	call	multiplyMatrices
	lui	a5,%hi(.LC5)
	addi	a0,a5,%lo(.LC5)
	call	puts
	addi	a5,s0,-136
	mv	a0,a5
	call	printMatrix
	li	a5,0
	mv	a0,a5
	ld	ra,136(sp)
	.cfi_restore 1
	ld	s0,128(sp)
	.cfi_restore 8
	.cfi_def_cfa 2, 144
	addi	sp,sp,144
	.cfi_def_cfa_offset 0
	jr	ra
	.cfi_endproc
.LFE2:
	.size	main, .-main
	.ident	"GCC: (g04696df09) 14.2.0"
	.section	.note.GNU-stack,"",@progbits
